

Microchip MPLAB XC8 Assembler V2.46 build 20240104201356 
                                                                                               Mon May 05 21:09:55 2025

Microchip MPLAB XC8 C Compiler v2.46 (Free license) build 20240104201356 Og1 
     1                           	processor	16F877A
     2                           	pagewidth 120
     3                           	opt	flic
     4                           	psect	strings,global,class=STRING,delta=2,noexec
     5                           	psect	cinit,global,class=CODE,merge=1,delta=2
     6                           	psect	bssCOMMON,global,class=COMMON,space=1,delta=1,noexec
     7                           	psect	bssBANK0,global,class=BANK0,space=1,delta=1,noexec
     8                           	psect	clrtext,global,class=CODE,delta=2
     9                           	psect	cstackCOMMON,global,class=COMMON,space=1,delta=1,noexec
    10                           	psect	cstackBANK0,global,class=BANK0,space=1,delta=1,noexec
    11                           	psect	maintext,global,class=CODE,split=1,delta=2
    12                           	psect	text1,local,class=CODE,merge=1,delta=2
    13                           	psect	text2,local,class=CODE,merge=1,delta=2
    14                           	psect	text3,local,class=CODE,merge=1,delta=2
    15                           	psect	text4,local,class=CODE,merge=1,delta=2
    16                           	psect	text5,local,class=CODE,merge=1,delta=2
    17                           	psect	text6,local,class=CODE,merge=1,delta=2
    18                           	psect	intentry,global,class=CODE,delta=2
    19                           	psect	config,global,abs,ovrld,class=CONFIG,space=4,delta=2,noexec
    20                           	dabs	1,0x7E,2
    21     0000                     
    22                           ; Generated 12/10/2023 GMT
    23                           ; 
    24                           ; Copyright © 2023, Microchip Technology Inc. and its subsidiaries ("Microchip")
    25                           ; All rights reserved.
    26                           ; 
    27                           ; This software is developed by Microchip Technology Inc. and its subsidiaries ("Microch
      +                          ip").
    28                           ; 
    29                           ; Redistribution and use in source and binary forms, with or without modification, are
    30                           ; permitted provided that the following conditions are met:
    31                           ; 
    32                           ;     1. Redistributions of source code must retain the above copyright notice, this lis
      +                          t of
    33                           ;        conditions and the following disclaimer.
    34                           ; 
    35                           ;     2. Redistributions in binary form must reproduce the above copyright notice, this 
      +                          list
    36                           ;        of conditions and the following disclaimer in the documentation and/or other
    37                           ;        materials provided with the distribution. Publication is not required when
    38                           ;        this file is used in an embedded application.
    39                           ; 
    40                           ;     3. Microchip's name may not be used to endorse or promote products derived from th
      +                          is
    41                           ;        software without specific prior written permission.
    42                           ; 
    43                           ; THIS SOFTWARE IS PROVIDED BY MICROCHIP "AS IS" AND ANY EXPRESS OR IMPLIED WARRANTIES,
    44                           ; INCLUDING, BUT NOT LIMITED TO, THE IMPLIED WARRANTIES OF MERCHANTABILITY AND FITNESS F
      +                          OR
    45                           ; PURPOSE ARE DISCLAIMED.  IN NO EVENT SHALL MICROCHIP BE LIABLE FOR ANY DIRECT, INDIREC
      +                          T,
    46                           ; INCIDENTAL, SPECIAL, EXEMPLARY, OR CONSEQUENTIAL DAMAGES (INCLUDING BUT NOT LIMITED TO
    47                           ; PROCUREMENT OF SUBSTITUTE GOODS OR SERVICES; LOSS OF USE, DATA OR PROFITS; OR BUSINESS
    48                           ; INTERRUPTION) HOWSOEVER CAUSED AND ON ANY THEORY OF LIABILITY, WHETHER IN CONTRACT, ST
      +                          RICT
    49                           ; LIABILITY, OR TORT (INCLUDING NEGLIGENCE OR OTHERWISE) ARISING IN ANY WAY OUT OF THE U
      +                          SE OF
    50                           ; THIS SOFTWARE, EVEN IF ADVISED OF THE POSSIBILITY OF SUCH DAMAGE.
    51                           ; 
    52                           ; 
    53                           ; Code-generator required, PIC16F877A Definitions
    54                           ; 
    55                           ; SFR Addresses
    56     0000                     	;# 
    57     0001                     	;# 
    58     0002                     	;# 
    59     0003                     	;# 
    60     0004                     	;# 
    61     0005                     	;# 
    62     0006                     	;# 
    63     0007                     	;# 
    64     0008                     	;# 
    65     0009                     	;# 
    66     000A                     	;# 
    67     000B                     	;# 
    68     000C                     	;# 
    69     000D                     	;# 
    70     000E                     	;# 
    71     000E                     	;# 
    72     000F                     	;# 
    73     0010                     	;# 
    74     0011                     	;# 
    75     0012                     	;# 
    76     0013                     	;# 
    77     0014                     	;# 
    78     0015                     	;# 
    79     0015                     	;# 
    80     0016                     	;# 
    81     0017                     	;# 
    82     0018                     	;# 
    83     0019                     	;# 
    84     001A                     	;# 
    85     001B                     	;# 
    86     001B                     	;# 
    87     001C                     	;# 
    88     001D                     	;# 
    89     001E                     	;# 
    90     001F                     	;# 
    91     0081                     	;# 
    92     0085                     	;# 
    93     0086                     	;# 
    94     0087                     	;# 
    95     0088                     	;# 
    96     0089                     	;# 
    97     008C                     	;# 
    98     008D                     	;# 
    99     008E                     	;# 
   100     0091                     	;# 
   101     0092                     	;# 
   102     0093                     	;# 
   103     0094                     	;# 
   104     0098                     	;# 
   105     0099                     	;# 
   106     009C                     	;# 
   107     009D                     	;# 
   108     009E                     	;# 
   109     009F                     	;# 
   110     010C                     	;# 
   111     010D                     	;# 
   112     010E                     	;# 
   113     010F                     	;# 
   114     018C                     	;# 
   115     018D                     	;# 
   116     0000                     	;# 
   117     0001                     	;# 
   118     0002                     	;# 
   119     0003                     	;# 
   120     0004                     	;# 
   121     0005                     	;# 
   122     0006                     	;# 
   123     0007                     	;# 
   124     0008                     	;# 
   125     0009                     	;# 
   126     000A                     	;# 
   127     000B                     	;# 
   128     000C                     	;# 
   129     000D                     	;# 
   130     000E                     	;# 
   131     000E                     	;# 
   132     000F                     	;# 
   133     0010                     	;# 
   134     0011                     	;# 
   135     0012                     	;# 
   136     0013                     	;# 
   137     0014                     	;# 
   138     0015                     	;# 
   139     0015                     	;# 
   140     0016                     	;# 
   141     0017                     	;# 
   142     0018                     	;# 
   143     0019                     	;# 
   144     001A                     	;# 
   145     001B                     	;# 
   146     001B                     	;# 
   147     001C                     	;# 
   148     001D                     	;# 
   149     001E                     	;# 
   150     001F                     	;# 
   151     0081                     	;# 
   152     0085                     	;# 
   153     0086                     	;# 
   154     0087                     	;# 
   155     0088                     	;# 
   156     0089                     	;# 
   157     008C                     	;# 
   158     008D                     	;# 
   159     008E                     	;# 
   160     0091                     	;# 
   161     0092                     	;# 
   162     0093                     	;# 
   163     0094                     	;# 
   164     0098                     	;# 
   165     0099                     	;# 
   166     009C                     	;# 
   167     009D                     	;# 
   168     009E                     	;# 
   169     009F                     	;# 
   170     010C                     	;# 
   171     010D                     	;# 
   172     010E                     	;# 
   173     010F                     	;# 
   174     018C                     	;# 
   175     018D                     	;# 
   176                           
   177                           	psect	strings
   178     04A1                     __pstrings:
   179     04A1                     stringtab:
   180     04A1                     __stringtab:
   181     04A1                     stringcode:	
   182                           ;	String table - string pointers are 1 byte each
   183                           
   184     04A1                     stringdir:
   185     04A1  3004               	movlw	high stringdir
   186     04A2  008A               	movwf	10
   187     04A3  0804               	movf	4,w
   188     04A4  0A84               	incf	4,f
   189     04A5  0782               	addwf	2,f
   190     04A6                     __stringbase:
   191     04A6  3400               	retlw	0
   192     04A7                     __end_of__stringtab:
   193     04A7                     _display:
   194     04A7  34C0               	retlw	192
   195     04A8  34F9               	retlw	249
   196     04A9  34A4               	retlw	164
   197     04AA  34B0               	retlw	176
   198     04AB  3499               	retlw	153
   199     04AC  3492               	retlw	146
   200     04AD  3482               	retlw	130
   201     04AE  34F8               	retlw	248
   202     04AF  3480               	retlw	128
   203     04B0  3490               	retlw	144
   204     04B1                     __end_of_display:
   205     04B1                     _mensaje_on:
   206     04B1  34A3               	retlw	163
   207     04B2  34AB               	retlw	171
   208     04B3  348E               	retlw	142
   209     04B4                     __end_of_mensaje_on:
   210     0008                     _PORTD	set	8
   211     0006                     _PORTB	set	6
   212     0009                     _PORTE	set	9
   213     0005                     _PORTA	set	5
   214     0009                     _PORTEbits	set	9
   215     0006                     _PORTBbits	set	6
   216     0001                     _TMR0	set	1
   217     000B                     _INTCONbits	set	11
   218     0081                     _OPTION_REGbits	set	129
   219     0088                     _TRISD	set	136
   220     0086                     _TRISB	set	134
   221     0089                     _TRISE	set	137
   222     0085                     _TRISA	set	133
   223                           
   224                           	psect	cinit
   225     000F                     start_initialization:	
   226                           ; #config settings
   227                           
   228     000F                     __initialization:
   229                           
   230                           ; Clear objects allocated to COMMON
   231     000F  01F8               	clrf	__pbssCOMMON& (0+127)
   232     0010  01F9               	clrf	(__pbssCOMMON+1)& (0+127)
   233                           
   234                           ; Clear objects allocated to BANK0
   235     0011  1383               	bcf	3,7	;select IRP bank0
   236     0012  3020               	movlw	low __pbssBANK0
   237     0013  0084               	movwf	4
   238     0014  304C               	movlw	low (__pbssBANK0+44)
   239     0015  120A  118A  24B4  120A  118A  	fcall	clear_ram0
   240     001A                     end_of_initialization:	
   241                           ;End of C runtime variable initialization code
   242                           
   243     001A                     __end_of__initialization:
   244     001A  0183               	clrf	3
   245     001B  120A  118A  281E   	ljmp	_main	;jump to C main() function
   246                           
   247                           	psect	bssCOMMON
   248     0078                     __pbssCOMMON:
   249     0078                     _seleccion:
   250     0078                     	ds	1
   251     0079                     _state:
   252     0079                     	ds	1
   253                           
   254                           	psect	bssBANK0
   255     0020                     __pbssBANK0:
   256     0020                     _mens_anterior_35w:
   257     0020                     	ds	4
   258     0024                     _anterior_35w:
   259     0024                     	ds	4
   260     0028                     _mens_anterior_50w:
   261     0028                     	ds	4
   262     002C                     _anterior_50w:
   263     002C                     	ds	4
   264     0030                     _mens_off:
   265     0030                     	ds	4
   266     0034                     _anterior:
   267     0034                     	ds	4
   268     0038                     _milisegundos:
   269     0038                     	ds	4
   270     003C                     mensajes@guarda_c:
   271     003C                     	ds	2
   272     003E                     mensajes@guarda_d:
   273     003E                     	ds	2
   274     0040                     mensajes@guarda_u:
   275     0040                     	ds	2
   276     0042                     _cont:
   277     0042                     	ds	2
   278     0044                     _cent:
   279     0044                     	ds	2
   280     0046                     _dece:
   281     0046                     	ds	2
   282     0048                     _unid:
   283     0048                     	ds	2
   284     004A                     _mensaje_display:
   285     004A                     	ds	1
   286     004B                     _on_display:
   287     004B                     	ds	1
   288                           
   289                           	psect	clrtext
   290     04B4                     clear_ram0:	
   291                           ;	Called with FSR containing the base address, and
   292                           ;	W with the last address+1
   293                           
   294     04B4  0064               	clrwdt	;clear the watchdog before getting into this loop
   295     04B5                     clrloop0:
   296     04B5  0180               	clrf	0	;clear RAM location pointed to by FSR
   297     04B6  0A84               	incf	4,f	;increment pointer
   298     04B7  0604               	xorwf	4,w	;XOR with final address
   299     04B8  1903               	btfsc	3,2	;have we reached the end yet?
   300     04B9  3400               	retlw	0	;all done for this memory range, return
   301     04BA  0604               	xorwf	4,w	;XOR again to restore value
   302     04BB  2CB5               	goto	clrloop0	;do the next byte
   303                           
   304                           	psect	cstackCOMMON
   305     0070                     __pcstackCOMMON:
   306     0070                     ?_config_registros:
   307     0070                     ?_mensajes:	
   308                           ; 1 bytes @ 0x0
   309                           
   310     0070                     ?_decremento_time:	
   311                           ; 1 bytes @ 0x0
   312                           
   313     0070                     ?_incremento_time:	
   314                           ; 1 bytes @ 0x0
   315                           
   316     0070                     ?_INT_TMR0:	
   317                           ; 1 bytes @ 0x0
   318                           
   319     0070                     ??_INT_TMR0:	
   320                           ; 1 bytes @ 0x0
   321                           
   322     0070                     ?_main:	
   323                           ; 1 bytes @ 0x0
   324                           
   325                           
   326                           ; 1 bytes @ 0x0
   327     0070                     	ds	2
   328     0072                     ??_config_registros:
   329     0072                     ?_visualizar:	
   330                           ; 1 bytes @ 0x2
   331                           
   332     0072                     ??_decremento_time:	
   333                           ; 1 bytes @ 0x2
   334                           
   335     0072                     ??_incremento_time:	
   336                           ; 1 bytes @ 0x2
   337                           
   338     0072                     visualizar@unidad:	
   339                           ; 1 bytes @ 0x2
   340                           
   341                           
   342                           ; 1 bytes @ 0x2
   343     0072                     	ds	1
   344     0073                     visualizar@decena:
   345                           
   346                           ; 1 bytes @ 0x3
   347     0073                     	ds	1
   348     0074                     visualizar@centena:
   349                           
   350                           ; 1 bytes @ 0x4
   351     0074                     	ds	1
   352     0075                     ??_visualizar:
   353                           
   354                           ; 1 bytes @ 0x5
   355     0075                     	ds	2
   356     0077                     visualizar@VER:
   357                           
   358                           ; 1 bytes @ 0x7
   359     0077                     	ds	1
   360                           
   361                           	psect	cstackBANK0
   362     004C                     __pcstackBANK0:
   363     004C                     ??_mensajes:
   364                           
   365                           ; 1 bytes @ 0x0
   366     004C                     	ds	4
   367     0050                     ??_main:
   368                           
   369                           ; 1 bytes @ 0x4
   370     0050                     	ds	4
   371                           
   372                           	psect	maintext
   373     001E                     __pmaintext:	
   374 ;;
   375 ;;Main: autosize = 0, tempsize = 4, incstack = 0, save=0
   376 ;;
   377 ;; *************** function _main *****************
   378 ;; Defined at:
   379 ;;		line 91 in file "Codigo_fuente.c"
   380 ;; Parameters:    Size  Location     Type
   381 ;;		None
   382 ;; Auto vars:     Size  Location     Type
   383 ;;		None
   384 ;; Return value:  Size  Location     Type
   385 ;;                  1    wreg      void 
   386 ;; Registers used:
   387 ;;		wreg, fsr0l, fsr0h, status,2, status,0, btemp+1, pclath, cstack
   388 ;; Tracked objects:
   389 ;;		On entry : B00/0
   390 ;;		On exit  : 0/0
   391 ;;		Unchanged: 0/0
   392 ;; Data sizes:     COMMON   BANK0   BANK1   BANK3   BANK2
   393 ;;      Params:         0       0       0       0       0
   394 ;;      Locals:         0       0       0       0       0
   395 ;;      Temps:          0       4       0       0       0
   396 ;;      Totals:         0       4       0       0       0
   397 ;;Total ram usage:        4 bytes
   398 ;; Hardware stack levels required when called: 4
   399 ;; This function calls:
   400 ;;		_config_registros
   401 ;;		_decremento_time
   402 ;;		_incremento_time
   403 ;;		_mensajes
   404 ;;		_visualizar
   405 ;; This function is called by:
   406 ;;		Startup code after reset
   407 ;; This function uses a non-reentrant model
   408 ;;
   409                           
   410     001E                     _main:	
   411                           ;psect for function _main
   412                           
   413     001E                     l1406:	
   414                           ;incstack = 0
   415                           ; Regs used in _main: [wreg-fsr0h+status,2+status,0+btemp+1+pclath+cstack]
   416                           
   417                           
   418                           ;Codigo_fuente.c: 92:     config_registros();
   419     001E  120A  118A  245A  120A  118A  	fcall	_config_registros
   420     0023                     l1408:
   421                           
   422                           ;Codigo_fuente.c: 95:         if(PORTBbits.RB1 == 0 && state == 0){
   423     0023  1283               	bcf	3,5	;RP0=0, select bank0
   424     0024  1303               	bcf	3,6	;RP1=0, select bank0
   425     0025  1886               	btfsc	6,1	;volatile
   426     0026  2828               	goto	u1211
   427     0027  2829               	goto	u1210
   428     0028                     u1211:
   429     0028  287B               	goto	l84
   430     0029                     u1210:
   431     0029                     l1410:
   432     0029  0879               	movf	_state,w
   433     002A  1D03               	btfss	3,2
   434     002B  282D               	goto	u1221
   435     002C  282E               	goto	u1220
   436     002D                     u1221:
   437     002D  287B               	goto	l84
   438     002E                     u1220:
   439     002E                     l1412:
   440                           
   441                           ;Codigo_fuente.c: 96:             _delay((unsigned long)((20)*(4000000/4000.0)));
   442     002E  301A               	movlw	26
   443     002F  1283               	bcf	3,5	;RP0=0, select bank0
   444     0030  1303               	bcf	3,6	;RP1=0, select bank0
   445     0031  00D1               	movwf	??_main+1
   446     0032  30F7               	movlw	247
   447     0033  00D0               	movwf	??_main
   448     0034                     u1597:
   449     0034  0BD0               	decfsz	??_main,f
   450     0035  2834               	goto	u1597
   451     0036  0BD1               	decfsz	??_main+1,f
   452     0037  2834               	goto	u1597
   453     0038  2839               	nop2
   454     0039                     l1414:
   455                           
   456                           ;Codigo_fuente.c: 97:             if(PORTBbits.RB1 == 0 && state == 0){
   457     0039  1283               	bcf	3,5	;RP0=0, select bank0
   458     003A  1303               	bcf	3,6	;RP1=0, select bank0
   459     003B  1886               	btfsc	6,1	;volatile
   460     003C  283E               	goto	u1231
   461     003D  283F               	goto	u1230
   462     003E                     u1231:
   463     003E  287B               	goto	l84
   464     003F                     u1230:
   465     003F                     l1416:
   466     003F  0879               	movf	_state,w
   467     0040  1D03               	btfss	3,2
   468     0041  2843               	goto	u1241
   469     0042  2844               	goto	u1240
   470     0043                     u1241:
   471     0043  287B               	goto	l84
   472     0044                     u1240:
   473     0044                     l1418:
   474                           
   475                           ;Codigo_fuente.c: 98:                 cont--;
   476     0044  30FF               	movlw	255
   477     0045  07C2               	addwf	_cont,f
   478     0046  1803               	skipnc
   479     0047  0AC3               	incf	_cont+1,f
   480     0048  30FF               	movlw	255
   481     0049  07C3               	addwf	_cont+1,f
   482     004A                     l1420:
   483                           
   484                           ;Codigo_fuente.c: 99:                 if(seleccion == ninguno){
   485     004A  0878               	movf	_seleccion,w
   486     004B  1D03               	btfss	3,2
   487     004C  284E               	goto	u1251
   488     004D  284F               	goto	u1250
   489     004E                     u1251:
   490     004E  2859               	goto	l1428
   491     004F                     u1250:
   492     004F                     l1422:
   493                           
   494                           ;Codigo_fuente.c: 100:                     unid = 0;
   495     004F  01C8               	clrf	_unid
   496     0050  01C9               	clrf	_unid+1
   497     0051                     l1424:
   498                           
   499                           ;Codigo_fuente.c: 101:                     dece = 2;
   500     0051  3002               	movlw	2
   501     0052  00C6               	movwf	_dece
   502     0053  3000               	movlw	0
   503     0054  00C7               	movwf	_dece+1
   504     0055                     l1426:
   505                           
   506                           ;Codigo_fuente.c: 102:                     cent = 1;
   507     0055  3001               	movlw	1
   508     0056  00C4               	movwf	_cent
   509     0057  3000               	movlw	0
   510     0058  00C5               	movwf	_cent+1
   511     0059                     l1428:
   512                           
   513                           ;Codigo_fuente.c: 104:                 if(seleccion != opcion_50w){
   514     0059  3002               	movlw	2
   515     005A  0678               	xorwf	_seleccion,w
   516     005B  1903               	btfsc	3,2
   517     005C  285E               	goto	u1261
   518     005D  285F               	goto	u1260
   519     005E                     u1261:
   520     005E  2870               	goto	l1434
   521     005F                     u1260:
   522     005F                     l1430:
   523                           
   524                           ;Codigo_fuente.c: 105:                     seleccion = opcion_35w;
   525     005F  01F8               	clrf	_seleccion
   526     0060  0AF8               	incf	_seleccion,f
   527                           
   528                           ;Codigo_fuente.c: 106:                     mensaje_display = mensaje_35w;
   529     0061  01CA               	clrf	_mensaje_display
   530     0062  0ACA               	incf	_mensaje_display,f
   531     0063  2870               	goto	l1434
   532     0064                     l1432:
   533     0064  01F2               	clrf	visualizar@unidad
   534     0065  0AF2               	incf	visualizar@unidad,f
   535     0066  3002               	movlw	2
   536     0067  00F3               	movwf	visualizar@decena
   537     0068  3003               	movlw	3
   538     0069  00F4               	movwf	visualizar@centena
   539     006A  3000               	movlw	0
   540     006B  120A  118A  234C  120A  118A  	fcall	_visualizar
   541     0070                     l1434:
   542     0070  1283               	bcf	3,5	;RP0=0, select bank0
   543     0071  1303               	bcf	3,6	;RP1=0, select bank0
   544     0072  1886               	btfsc	6,1	;volatile
   545     0073  2875               	goto	u1271
   546     0074  2876               	goto	u1270
   547     0075                     u1271:
   548     0075  287B               	goto	l84
   549     0076                     u1270:
   550     0076                     l1436:
   551     0076  0879               	movf	_state,w
   552     0077  1903               	btfsc	3,2
   553     0078  287A               	goto	u1281
   554     0079  287B               	goto	u1280
   555     007A                     u1281:
   556     007A  2864               	goto	l1432
   557     007B                     u1280:
   558     007B                     l84:	
   559                           ;Codigo_fuente.c: 111:         }
   560                           
   561                           
   562                           ;Codigo_fuente.c: 113:         if(PORTBbits.RB2 == 0 && state == 0){
   563     007B  1906               	btfsc	6,2	;volatile
   564     007C  287E               	goto	u1291
   565     007D  287F               	goto	u1290
   566     007E                     u1291:
   567     007E  28D0               	goto	l93
   568     007F                     u1290:
   569     007F                     l1438:
   570     007F  0879               	movf	_state,w
   571     0080  1D03               	btfss	3,2
   572     0081  2883               	goto	u1301
   573     0082  2884               	goto	u1300
   574     0083                     u1301:
   575     0083  28D0               	goto	l93
   576     0084                     u1300:
   577     0084                     l1440:
   578                           
   579                           ;Codigo_fuente.c: 114:             _delay((unsigned long)((20)*(4000000/4000.0)));
   580     0084  301A               	movlw	26
   581     0085  1283               	bcf	3,5	;RP0=0, select bank0
   582     0086  1303               	bcf	3,6	;RP1=0, select bank0
   583     0087  00D1               	movwf	??_main+1
   584     0088  30F7               	movlw	247
   585     0089  00D0               	movwf	??_main
   586     008A                     u1607:
   587     008A  0BD0               	decfsz	??_main,f
   588     008B  288A               	goto	u1607
   589     008C  0BD1               	decfsz	??_main+1,f
   590     008D  288A               	goto	u1607
   591     008E  288F               	nop2
   592     008F                     l1442:
   593                           
   594                           ;Codigo_fuente.c: 115:             if(PORTBbits.RB2 == 0 && state == 0){
   595     008F  1283               	bcf	3,5	;RP0=0, select bank0
   596     0090  1303               	bcf	3,6	;RP1=0, select bank0
   597     0091  1906               	btfsc	6,2	;volatile
   598     0092  2894               	goto	u1311
   599     0093  2895               	goto	u1310
   600     0094                     u1311:
   601     0094  28D0               	goto	l93
   602     0095                     u1310:
   603     0095                     l1444:
   604     0095  0879               	movf	_state,w
   605     0096  1D03               	btfss	3,2
   606     0097  2899               	goto	u1321
   607     0098  289A               	goto	u1320
   608     0099                     u1321:
   609     0099  28D0               	goto	l93
   610     009A                     u1320:
   611     009A                     l1446:
   612                           
   613                           ;Codigo_fuente.c: 116:                 cont++;
   614     009A  3001               	movlw	1
   615     009B  07C2               	addwf	_cont,f
   616     009C  1803               	skipnc
   617     009D  0AC3               	incf	_cont+1,f
   618     009E  3000               	movlw	0
   619     009F  07C3               	addwf	_cont+1,f
   620     00A0                     l1448:
   621                           
   622                           ;Codigo_fuente.c: 117:                 if(seleccion == ninguno){
   623     00A0  0878               	movf	_seleccion,w
   624     00A1  1D03               	btfss	3,2
   625     00A2  28A4               	goto	u1331
   626     00A3  28A5               	goto	u1330
   627     00A4                     u1331:
   628     00A4  28AF               	goto	l1456
   629     00A5                     u1330:
   630     00A5                     l1450:
   631                           
   632                           ;Codigo_fuente.c: 118:                     unid = 0;
   633     00A5  01C8               	clrf	_unid
   634     00A6  01C9               	clrf	_unid+1
   635     00A7                     l1452:
   636                           
   637                           ;Codigo_fuente.c: 119:                     dece = 4;
   638     00A7  3004               	movlw	4
   639     00A8  00C6               	movwf	_dece
   640     00A9  3000               	movlw	0
   641     00AA  00C7               	movwf	_dece+1
   642     00AB                     l1454:
   643                           
   644                           ;Codigo_fuente.c: 120:                     cent = 1;
   645     00AB  3001               	movlw	1
   646     00AC  00C4               	movwf	_cent
   647     00AD  3000               	movlw	0
   648     00AE  00C5               	movwf	_cent+1
   649     00AF                     l1456:
   650                           
   651                           ;Codigo_fuente.c: 122:                 if(seleccion != opcion_35w){
   652     00AF  0378               	decf	_seleccion,w
   653     00B0  1903               	btfsc	3,2
   654     00B1  28B3               	goto	u1341
   655     00B2  28B4               	goto	u1340
   656     00B3                     u1341:
   657     00B3  28C5               	goto	l1462
   658     00B4                     u1340:
   659     00B4                     l1458:
   660                           
   661                           ;Codigo_fuente.c: 123:                     seleccion = opcion_50w;
   662     00B4  3002               	movlw	2
   663     00B5  00F8               	movwf	_seleccion
   664                           
   665                           ;Codigo_fuente.c: 124:                     mensaje_display = mensaje_50w;
   666     00B6  3002               	movlw	2
   667     00B7  00CA               	movwf	_mensaje_display
   668     00B8  28C5               	goto	l1462
   669     00B9                     l1460:
   670     00B9  01F2               	clrf	visualizar@unidad
   671     00BA  0AF2               	incf	visualizar@unidad,f
   672     00BB  3002               	movlw	2
   673     00BC  00F3               	movwf	visualizar@decena
   674     00BD  3003               	movlw	3
   675     00BE  00F4               	movwf	visualizar@centena
   676     00BF  3000               	movlw	0
   677     00C0  120A  118A  234C  120A  118A  	fcall	_visualizar
   678     00C5                     l1462:
   679     00C5  1283               	bcf	3,5	;RP0=0, select bank0
   680     00C6  1303               	bcf	3,6	;RP1=0, select bank0
   681     00C7  1906               	btfsc	6,2	;volatile
   682     00C8  28CA               	goto	u1351
   683     00C9  28CB               	goto	u1350
   684     00CA                     u1351:
   685     00CA  28D0               	goto	l93
   686     00CB                     u1350:
   687     00CB                     l1464:
   688     00CB  0879               	movf	_state,w
   689     00CC  1903               	btfsc	3,2
   690     00CD  28CF               	goto	u1361
   691     00CE  28D0               	goto	u1360
   692     00CF                     u1361:
   693     00CF  28B9               	goto	l1460
   694     00D0                     u1360:
   695     00D0                     l93:	
   696                           ;Codigo_fuente.c: 128:         }
   697                           
   698                           
   699                           ;Codigo_fuente.c: 130:         if(PORTBbits.RB0 == 0){
   700     00D0  1806               	btfsc	6,0	;volatile
   701     00D1  28D3               	goto	u1371
   702     00D2  28D4               	goto	u1370
   703     00D3                     u1371:
   704     00D3  2900               	goto	l1476
   705     00D4                     u1370:
   706     00D4                     l1466:
   707                           
   708                           ;Codigo_fuente.c: 131:             _delay((unsigned long)((20)*(4000000/4000.0)));
   709     00D4  301A               	movlw	26
   710     00D5  1283               	bcf	3,5	;RP0=0, select bank0
   711     00D6  1303               	bcf	3,6	;RP1=0, select bank0
   712     00D7  00D1               	movwf	??_main+1
   713     00D8  30F7               	movlw	247
   714     00D9  00D0               	movwf	??_main
   715     00DA                     u1617:
   716     00DA  0BD0               	decfsz	??_main,f
   717     00DB  28DA               	goto	u1617
   718     00DC  0BD1               	decfsz	??_main+1,f
   719     00DD  28DA               	goto	u1617
   720     00DE  28DF               	nop2
   721     00DF                     l1468:
   722                           
   723                           ;Codigo_fuente.c: 132:             if(PORTBbits.RB0 == 0){
   724     00DF  1283               	bcf	3,5	;RP0=0, select bank0
   725     00E0  1303               	bcf	3,6	;RP1=0, select bank0
   726     00E1  1806               	btfsc	6,0	;volatile
   727     00E2  28E4               	goto	u1381
   728     00E3  28E5               	goto	u1380
   729     00E4                     u1381:
   730     00E4  2900               	goto	l1476
   731     00E5                     u1380:
   732     00E5                     l1470:
   733                           
   734                           ;Codigo_fuente.c: 133:                 state = !state;
   735     00E5  0879               	movf	_state,w
   736     00E6  1903               	btfsc	3,2
   737     00E7  28E9               	goto	u1391
   738     00E8  28EB               	goto	u1390
   739     00E9                     u1391:
   740     00E9  3001               	movlw	1
   741     00EA  28EC               	goto	u1400
   742     00EB                     u1390:
   743     00EB  3000               	movlw	0
   744     00EC                     u1400:
   745     00EC  00F9               	movwf	_state
   746                           
   747                           ;Codigo_fuente.c: 134:                 while(PORTBbits.RB0 == 0){visualizar(0,on_unidad,
      +                          on_decena,on_centena);}
   748     00ED  28FA               	goto	l1474
   749     00EE                     l1472:
   750     00EE  01F2               	clrf	visualizar@unidad
   751     00EF  0AF2               	incf	visualizar@unidad,f
   752     00F0  3002               	movlw	2
   753     00F1  00F3               	movwf	visualizar@decena
   754     00F2  3003               	movlw	3
   755     00F3  00F4               	movwf	visualizar@centena
   756     00F4  3000               	movlw	0
   757     00F5  120A  118A  234C  120A  118A  	fcall	_visualizar
   758     00FA                     l1474:
   759     00FA  1283               	bcf	3,5	;RP0=0, select bank0
   760     00FB  1303               	bcf	3,6	;RP1=0, select bank0
   761     00FC  1C06               	btfss	6,0	;volatile
   762     00FD  28FF               	goto	u1411
   763     00FE  2900               	goto	u1410
   764     00FF                     u1411:
   765     00FF  28EE               	goto	l1472
   766     0100                     u1410:
   767     0100                     l1476:
   768                           
   769                           ;Codigo_fuente.c: 138:         if(state == 1 && mensaje_display != mensaje_espera){
   770     0100  0379               	decf	_state,w
   771     0101  1D03               	btfss	3,2
   772     0102  2904               	goto	u1421
   773     0103  2905               	goto	u1420
   774     0104                     u1421:
   775     0104  290F               	goto	l1482
   776     0105                     u1420:
   777     0105                     l1478:
   778     0105  084A               	movf	_mensaje_display,w
   779     0106  1903               	btfsc	3,2
   780     0107  2909               	goto	u1431
   781     0108  290A               	goto	u1430
   782     0109                     u1431:
   783     0109  290F               	goto	l1482
   784     010A                     u1430:
   785     010A                     l1480:
   786                           
   787                           ;Codigo_fuente.c: 139:             mensajes();
   788     010A  120A  118A  21C9  120A  118A  	fcall	_mensajes
   789     010F                     l1482:
   790                           
   791                           ;Codigo_fuente.c: 142:         if(state == 1 && seleccion == opcion_35w){
   792     010F  0379               	decf	_state,w
   793     0110  1D03               	btfss	3,2
   794     0111  2913               	goto	u1441
   795     0112  2914               	goto	u1440
   796     0113                     u1441:
   797     0113  291C               	goto	l1488
   798     0114                     u1440:
   799     0114                     l1484:
   800     0114  0378               	decf	_seleccion,w
   801     0115  1D03               	btfss	3,2
   802     0116  2918               	goto	u1451
   803     0117  2919               	goto	u1450
   804     0118                     u1451:
   805     0118  291C               	goto	l1488
   806     0119                     u1450:
   807     0119                     l1486:
   808                           
   809                           ;Codigo_fuente.c: 143:             PORTEbits.RE0 = 1;
   810     0119  1283               	bcf	3,5	;RP0=0, select bank0
   811     011A  1303               	bcf	3,6	;RP1=0, select bank0
   812     011B  1409               	bsf	9,0	;volatile
   813     011C                     l1488:
   814                           
   815                           ;Codigo_fuente.c: 146:         if(state == 1 && seleccion == opcion_50w){
   816     011C  0379               	decf	_state,w
   817     011D  1D03               	btfss	3,2
   818     011E  2920               	goto	u1461
   819     011F  2921               	goto	u1460
   820     0120                     u1461:
   821     0120  292A               	goto	l1494
   822     0121                     u1460:
   823     0121                     l1490:
   824     0121  3002               	movlw	2
   825     0122  0678               	xorwf	_seleccion,w
   826     0123  1D03               	btfss	3,2
   827     0124  2926               	goto	u1471
   828     0125  2927               	goto	u1470
   829     0126                     u1471:
   830     0126  292A               	goto	l1494
   831     0127                     u1470:
   832     0127                     l1492:
   833                           
   834                           ;Codigo_fuente.c: 147:             PORTEbits.RE1 = 1;
   835     0127  1283               	bcf	3,5	;RP0=0, select bank0
   836     0128  1303               	bcf	3,6	;RP1=0, select bank0
   837     0129  1489               	bsf	9,1	;volatile
   838     012A                     l1494:
   839                           
   840                           ;Codigo_fuente.c: 150:         if(state == 0){
   841     012A  0879               	movf	_state,w
   842     012B  1D03               	btfss	3,2
   843     012C  292E               	goto	u1481
   844     012D  292F               	goto	u1480
   845     012E                     u1481:
   846     012E  2933               	goto	l1498
   847     012F                     u1480:
   848     012F                     l1496:
   849                           
   850                           ;Codigo_fuente.c: 151:             PORTEbits.RE0 = 0;
   851     012F  1283               	bcf	3,5	;RP0=0, select bank0
   852     0130  1303               	bcf	3,6	;RP1=0, select bank0
   853     0131  1009               	bcf	9,0	;volatile
   854                           
   855                           ;Codigo_fuente.c: 152:             PORTEbits.RE1 = 0;
   856     0132  1089               	bcf	9,1	;volatile
   857     0133                     l1498:
   858                           
   859                           ;Codigo_fuente.c: 155:         if(state == 1){
   860     0133  0379               	decf	_state,w
   861     0134  1D03               	btfss	3,2
   862     0135  2937               	goto	u1491
   863     0136  2938               	goto	u1490
   864     0137                     u1491:
   865     0137  297D               	goto	l1506
   866     0138                     u1490:
   867     0138                     l1500:
   868                           
   869                           ;Codigo_fuente.c: 156:             if(milisegundos - anterior >= 1000) {
   870     0138  1283               	bcf	3,5	;RP0=0, select bank0
   871     0139  1303               	bcf	3,6	;RP1=0, select bank0
   872     013A  0838               	movf	_milisegundos,w	;volatile
   873     013B  00D0               	movwf	??_main
   874     013C  0839               	movf	_milisegundos+1,w	;volatile
   875     013D  00D1               	movwf	??_main+1
   876     013E  083A               	movf	_milisegundos+2,w	;volatile
   877     013F  00D2               	movwf	??_main+2
   878     0140  083B               	movf	_milisegundos+3,w	;volatile
   879     0141  00D3               	movwf	??_main+3
   880     0142  0834               	movf	_anterior,w
   881     0143  02D0               	subwf	??_main,f
   882     0144  0835               	movf	_anterior+1,w
   883     0145  1C03               	skipc
   884     0146  0F35               	incfsz	_anterior+1,w
   885     0147  2949               	goto	u1501
   886     0148  294A               	goto	u1502
   887     0149                     u1501:
   888     0149  02D1               	subwf	??_main+1,f
   889     014A                     u1502:
   890     014A  0836               	movf	_anterior+2,w
   891     014B  1C03               	skipc
   892     014C  0F36               	incfsz	_anterior+2,w
   893     014D  294F               	goto	u1503
   894     014E  2950               	goto	u1504
   895     014F                     u1503:
   896     014F  02D2               	subwf	??_main+2,f
   897     0150                     u1504:
   898     0150  0837               	movf	_anterior+3,w
   899     0151  1C03               	skipc
   900     0152  0F37               	incfsz	_anterior+3,w
   901     0153  2955               	goto	u1505
   902     0154  2956               	goto	u1506
   903     0155                     u1505:
   904     0155  02D3               	subwf	??_main+3,f
   905     0156                     u1506:
   906     0156  0853               	movf	??_main+3,w
   907     0157  1D03               	btfss	3,2
   908     0158  2968               	goto	u1510
   909     0159  0852               	movf	??_main+2,w
   910     015A  1D03               	btfss	3,2
   911     015B  2968               	goto	u1510
   912     015C  3003               	movlw	3
   913     015D  0251               	subwf	??_main+1,w
   914     015E  1D03               	skipz
   915     015F  2964               	goto	u1513
   916     0160  30E8               	movlw	232
   917     0161  0250               	subwf	??_main,w
   918     0162  1D03               	skipz
   919     0163  2964               	goto	u1513
   920     0164                     u1513:
   921     0164  1C03               	btfss	3,0
   922     0165  2967               	goto	u1511
   923     0166  2968               	goto	u1510
   924     0167                     u1511:
   925     0167  297D               	goto	l1506
   926     0168                     u1510:
   927     0168                     l1502:
   928                           
   929                           ;Codigo_fuente.c: 157:                 anterior = milisegundos;
   930     0168  1283               	bcf	3,5	;RP0=0, select bank0
   931     0169  1303               	bcf	3,6	;RP1=0, select bank0
   932     016A  083B               	movf	_milisegundos+3,w	;volatile
   933     016B  00B7               	movwf	_anterior+3
   934     016C  083A               	movf	_milisegundos+2,w	;volatile
   935     016D  00B6               	movwf	_anterior+2
   936     016E  0839               	movf	_milisegundos+1,w	;volatile
   937     016F  00B5               	movwf	_anterior+1
   938     0170  0838               	movf	_milisegundos,w	;volatile
   939     0171  00B4               	movwf	_anterior
   940                           
   941                           ;Codigo_fuente.c: 158:                 cont--;
   942     0172  30FF               	movlw	255
   943     0173  07C2               	addwf	_cont,f
   944     0174  1803               	skipnc
   945     0175  0AC3               	incf	_cont+1,f
   946     0176  30FF               	movlw	255
   947     0177  07C3               	addwf	_cont+1,f
   948     0178                     l1504:
   949                           
   950                           ;Codigo_fuente.c: 159:                 decremento_time();
   951     0178  120A  118A  2426  120A  118A  	fcall	_decremento_time
   952     017D                     l1506:
   953                           
   954                           ;Codigo_fuente.c: 163:         if(state == 0 || seleccion == opcion_35w){
   955     017D  0879               	movf	_state,w
   956     017E  1903               	btfsc	3,2
   957     017F  2981               	goto	u1521
   958     0180  2982               	goto	u1520
   959     0181                     u1521:
   960     0181  2987               	goto	l1510
   961     0182                     u1520:
   962     0182                     l1508:
   963     0182  0378               	decf	_seleccion,w
   964     0183  1D03               	btfss	3,2
   965     0184  2986               	goto	u1531
   966     0185  2987               	goto	u1530
   967     0186                     u1531:
   968     0186  298C               	goto	l1512
   969     0187                     u1530:
   970     0187                     l1510:
   971                           
   972                           ;Codigo_fuente.c: 164:             decremento_time();
   973     0187  120A  118A  2426  120A  118A  	fcall	_decremento_time
   974     018C                     l1512:
   975                           
   976                           ;Codigo_fuente.c: 166:         if(state == 0 || seleccion == opcion_50w){
   977     018C  0879               	movf	_state,w
   978     018D  1903               	btfsc	3,2
   979     018E  2990               	goto	u1541
   980     018F  2991               	goto	u1540
   981     0190                     u1541:
   982     0190  2997               	goto	l1516
   983     0191                     u1540:
   984     0191                     l1514:
   985     0191  3002               	movlw	2
   986     0192  0678               	xorwf	_seleccion,w
   987     0193  1D03               	btfss	3,2
   988     0194  2996               	goto	u1551
   989     0195  2997               	goto	u1550
   990     0196                     u1551:
   991     0196  299C               	goto	l1518
   992     0197                     u1550:
   993     0197                     l1516:
   994                           
   995                           ;Codigo_fuente.c: 167:             incremento_time();
   996     0197  120A  118A  23E0  120A  118A  	fcall	_incremento_time
   997     019C                     l1518:
   998                           
   999                           ;Codigo_fuente.c: 170:         if(unid == 0 && dece == 0 && cent == 0){
  1000     019C  1283               	bcf	3,5	;RP0=0, select bank0
  1001     019D  1303               	bcf	3,6	;RP1=0, select bank0
  1002     019E  0848               	movf	_unid,w
  1003     019F  0449               	iorwf	_unid+1,w
  1004     01A0  1D03               	btfss	3,2
  1005     01A1  29A3               	goto	u1561
  1006     01A2  29A4               	goto	u1560
  1007     01A3                     u1561:
  1008     01A3  29B9               	goto	l1530
  1009     01A4                     u1560:
  1010     01A4                     l1520:
  1011     01A4  0846               	movf	_dece,w
  1012     01A5  0447               	iorwf	_dece+1,w
  1013     01A6  1D03               	btfss	3,2
  1014     01A7  29A9               	goto	u1571
  1015     01A8  29AA               	goto	u1570
  1016     01A9                     u1571:
  1017     01A9  29B9               	goto	l1530
  1018     01AA                     u1570:
  1019     01AA                     l1522:
  1020     01AA  0844               	movf	_cent,w
  1021     01AB  0445               	iorwf	_cent+1,w
  1022     01AC  1D03               	btfss	3,2
  1023     01AD  29AF               	goto	u1581
  1024     01AE  29B0               	goto	u1580
  1025     01AF                     u1581:
  1026     01AF  29B9               	goto	l1530
  1027     01B0                     u1580:
  1028     01B0                     l1524:
  1029                           
  1030                           ;Codigo_fuente.c: 171:             PORTEbits.RE0 = 0;
  1031     01B0  1009               	bcf	9,0	;volatile
  1032                           
  1033                           ;Codigo_fuente.c: 172:             PORTEbits.RE1 = 0;
  1034     01B1  1089               	bcf	9,1	;volatile
  1035     01B2                     l1526:
  1036                           
  1037                           ;Codigo_fuente.c: 173:             seleccion = ninguno;
  1038     01B2  01F8               	clrf	_seleccion
  1039     01B3                     l1528:
  1040                           
  1041                           ;Codigo_fuente.c: 174:             mensajes();
  1042     01B3  120A  118A  21C9  120A  118A  	fcall	_mensajes
  1043                           
  1044                           ;Codigo_fuente.c: 175:         }else{
  1045     01B8  2823               	goto	l1408
  1046     01B9                     l1530:
  1047                           
  1048                           ;Codigo_fuente.c: 176:             visualizar(0,on_unidad,on_decena,on_centena);
  1049     01B9  01F2               	clrf	visualizar@unidad
  1050     01BA  0AF2               	incf	visualizar@unidad,f
  1051     01BB  3002               	movlw	2
  1052     01BC  00F3               	movwf	visualizar@decena
  1053     01BD  3003               	movlw	3
  1054     01BE  00F4               	movwf	visualizar@centena
  1055     01BF  3000               	movlw	0
  1056     01C0  120A  118A  234C  120A  118A  	fcall	_visualizar
  1057     01C5  2823               	goto	l1408
  1058     01C6  120A  118A  280C   	ljmp	start
  1059     01C9                     __end_of_main:
  1060                           
  1061                           	psect	text1
  1062     01C9                     __ptext1:	
  1063 ;; *************** function _mensajes *****************
  1064 ;; Defined at:
  1065 ;;		line 284 in file "Codigo_fuente.c"
  1066 ;; Parameters:    Size  Location     Type
  1067 ;;		None
  1068 ;; Auto vars:     Size  Location     Type
  1069 ;;		None
  1070 ;; Return value:  Size  Location     Type
  1071 ;;                  1    wreg      void 
  1072 ;; Registers used:
  1073 ;;		wreg, fsr0l, fsr0h, status,2, status,0, pclath, cstack
  1074 ;; Tracked objects:
  1075 ;;		On entry : 0/0
  1076 ;;		On exit  : 0/0
  1077 ;;		Unchanged: 0/0
  1078 ;; Data sizes:     COMMON   BANK0   BANK1   BANK3   BANK2
  1079 ;;      Params:         0       0       0       0       0
  1080 ;;      Locals:         0       0       0       0       0
  1081 ;;      Temps:          0       4       0       0       0
  1082 ;;      Totals:         0       4       0       0       0
  1083 ;;Total ram usage:        4 bytes
  1084 ;; Hardware stack levels used: 1
  1085 ;; Hardware stack levels required when called: 3
  1086 ;; This function calls:
  1087 ;;		_visualizar
  1088 ;; This function is called by:
  1089 ;;		_main
  1090 ;; This function uses a non-reentrant model
  1091 ;;
  1092                           
  1093     01C9                     _mensajes:	
  1094                           ;psect for function _mensajes
  1095                           
  1096     01C9                     l1346:	
  1097                           ;incstack = 0
  1098                           ; Regs used in _mensajes: [wreg-fsr0h+status,2+status,0+pclath+cstack]
  1099                           
  1100                           
  1101                           ;Codigo_fuente.c: 286:     static int guarda_u, guarda_d, guarda_c;;Codigo_fuente.c: 287
      +                          :     guarda_u = unid;
  1102     01C9  1283               	bcf	3,5	;RP0=0, select bank0
  1103     01CA  1303               	bcf	3,6	;RP1=0, select bank0
  1104     01CB  0849               	movf	_unid+1,w
  1105     01CC  00C1               	movwf	mensajes@guarda_u+1
  1106     01CD  0848               	movf	_unid,w
  1107     01CE  00C0               	movwf	mensajes@guarda_u
  1108                           
  1109                           ;Codigo_fuente.c: 288:     guarda_d = dece;
  1110     01CF  0847               	movf	_dece+1,w
  1111     01D0  00BF               	movwf	mensajes@guarda_d+1
  1112     01D1  0846               	movf	_dece,w
  1113     01D2  00BE               	movwf	mensajes@guarda_d
  1114                           
  1115                           ;Codigo_fuente.c: 289:     guarda_c = cent;
  1116     01D3  0845               	movf	_cent+1,w
  1117     01D4  00BD               	movwf	mensajes@guarda_c+1
  1118     01D5  0844               	movf	_cent,w
  1119     01D6  00BC               	movwf	mensajes@guarda_c
  1120                           
  1121                           ;Codigo_fuente.c: 290:    switch(mensaje_display){
  1122     01D7  2B2A               	goto	l1398
  1123     01D8                     l1348:
  1124                           
  1125                           ;Codigo_fuente.c: 294:                unid = 2;
  1126     01D8  3002               	movlw	2
  1127     01D9  00C8               	movwf	_unid
  1128     01DA  3000               	movlw	0
  1129     01DB  00C9               	movwf	_unid+1
  1130                           
  1131                           ;Codigo_fuente.c: 295:                dece = 2;
  1132     01DC  3002               	movlw	2
  1133     01DD  00C6               	movwf	_dece
  1134     01DE  3000               	movlw	0
  1135     01DF  00C7               	movwf	_dece+1
  1136     01E0                     l1350:
  1137                           
  1138                           ;Codigo_fuente.c: 296:                cent = 0;
  1139     01E0  01C4               	clrf	_cent
  1140     01E1  01C5               	clrf	_cent+1
  1141     01E2                     l1352:
  1142                           
  1143                           ;Codigo_fuente.c: 297:                visualizar(1,on_unidad, on_decena, on_centena);
  1144     01E2  01F2               	clrf	visualizar@unidad
  1145     01E3  0AF2               	incf	visualizar@unidad,f
  1146     01E4  3002               	movlw	2
  1147     01E5  00F3               	movwf	visualizar@decena
  1148     01E6  3003               	movlw	3
  1149     01E7  00F4               	movwf	visualizar@centena
  1150     01E8  3001               	movlw	1
  1151     01E9  120A  118A  234C  120A  118A  	fcall	_visualizar
  1152                           
  1153                           ;Codigo_fuente.c: 299:            break;
  1154     01EE  2B3D               	goto	l1400
  1155     01EF                     l1354:
  1156                           
  1157                           ;Codigo_fuente.c: 301:            mens_anterior_35w = milisegundos;
  1158     01EF  083B               	movf	_milisegundos+3,w	;volatile
  1159     01F0  00A3               	movwf	_mens_anterior_35w+3
  1160     01F1  083A               	movf	_milisegundos+2,w	;volatile
  1161     01F2  00A2               	movwf	_mens_anterior_35w+2
  1162     01F3  0839               	movf	_milisegundos+1,w	;volatile
  1163     01F4  00A1               	movwf	_mens_anterior_35w+1
  1164     01F5  0838               	movf	_milisegundos,w	;volatile
  1165     01F6  00A0               	movwf	_mens_anterior_35w
  1166                           
  1167                           ;Codigo_fuente.c: 302:            while(milisegundos - mens_anterior_35w <= 1000){
  1168     01F7  2A0D               	goto	l1360
  1169     01F8                     l1356:
  1170                           
  1171                           ;Codigo_fuente.c: 303:                unid = 5;
  1172     01F8  3005               	movlw	5
  1173     01F9  1283               	bcf	3,5	;RP0=0, select bank0
  1174     01FA  1303               	bcf	3,6	;RP1=0, select bank0
  1175     01FB  00C8               	movwf	_unid
  1176     01FC  3000               	movlw	0
  1177     01FD  00C9               	movwf	_unid+1
  1178                           
  1179                           ;Codigo_fuente.c: 304:                dece = 3;
  1180     01FE  3003               	movlw	3
  1181     01FF  00C6               	movwf	_dece
  1182     0200  3000               	movlw	0
  1183     0201  00C7               	movwf	_dece+1
  1184     0202                     l1358:
  1185                           
  1186                           ;Codigo_fuente.c: 305:                visualizar(0,on_unidad,on_decena,off);
  1187     0202  01F2               	clrf	visualizar@unidad
  1188     0203  0AF2               	incf	visualizar@unidad,f
  1189     0204  3002               	movlw	2
  1190     0205  00F3               	movwf	visualizar@decena
  1191     0206  01F4               	clrf	visualizar@centena
  1192     0207  3000               	movlw	0
  1193     0208  120A  118A  234C  120A  118A  	fcall	_visualizar
  1194     020D                     l1360:
  1195                           
  1196                           ;Codigo_fuente.c: 302:            while(milisegundos - mens_anterior_35w <= 1000){
  1197     020D  1283               	bcf	3,5	;RP0=0, select bank0
  1198     020E  1303               	bcf	3,6	;RP1=0, select bank0
  1199     020F  0838               	movf	_milisegundos,w	;volatile
  1200     0210  00CC               	movwf	??_mensajes
  1201     0211  0839               	movf	_milisegundos+1,w	;volatile
  1202     0212  00CD               	movwf	??_mensajes+1
  1203     0213  083A               	movf	_milisegundos+2,w	;volatile
  1204     0214  00CE               	movwf	??_mensajes+2
  1205     0215  083B               	movf	_milisegundos+3,w	;volatile
  1206     0216  00CF               	movwf	??_mensajes+3
  1207     0217  0820               	movf	_mens_anterior_35w,w
  1208     0218  02CC               	subwf	??_mensajes,f
  1209     0219  0821               	movf	_mens_anterior_35w+1,w
  1210     021A  1C03               	skipc
  1211     021B  0F21               	incfsz	_mens_anterior_35w+1,w
  1212     021C  2A1E               	goto	u1131
  1213     021D  2A1F               	goto	u1132
  1214     021E                     u1131:
  1215     021E  02CD               	subwf	??_mensajes+1,f
  1216     021F                     u1132:
  1217     021F  0822               	movf	_mens_anterior_35w+2,w
  1218     0220  1C03               	skipc
  1219     0221  0F22               	incfsz	_mens_anterior_35w+2,w
  1220     0222  2A24               	goto	u1133
  1221     0223  2A25               	goto	u1134
  1222     0224                     u1133:
  1223     0224  02CE               	subwf	??_mensajes+2,f
  1224     0225                     u1134:
  1225     0225  0823               	movf	_mens_anterior_35w+3,w
  1226     0226  1C03               	skipc
  1227     0227  0F23               	incfsz	_mens_anterior_35w+3,w
  1228     0228  2A2A               	goto	u1135
  1229     0229  2A2B               	goto	u1136
  1230     022A                     u1135:
  1231     022A  02CF               	subwf	??_mensajes+3,f
  1232     022B                     u1136:
  1233     022B  084F               	movf	??_mensajes+3,w
  1234     022C  1D03               	btfss	3,2
  1235     022D  2A3D               	goto	u1140
  1236     022E  084E               	movf	??_mensajes+2,w
  1237     022F  1D03               	btfss	3,2
  1238     0230  2A3D               	goto	u1140
  1239     0231  3003               	movlw	3
  1240     0232  024D               	subwf	??_mensajes+1,w
  1241     0233  1D03               	skipz
  1242     0234  2A39               	goto	u1143
  1243     0235  30E9               	movlw	233
  1244     0236  024C               	subwf	??_mensajes,w
  1245     0237  1D03               	skipz
  1246     0238  2A39               	goto	u1143
  1247     0239                     u1143:
  1248     0239  1C03               	btfss	3,0
  1249     023A  2A3C               	goto	u1141
  1250     023B  2A3D               	goto	u1140
  1251     023C                     u1141:
  1252     023C  29F8               	goto	l1356
  1253     023D                     u1140:
  1254     023D                     l1362:
  1255                           
  1256                           ;Codigo_fuente.c: 307:            anterior_35w = milisegundos;
  1257     023D  1283               	bcf	3,5	;RP0=0, select bank0
  1258     023E  1303               	bcf	3,6	;RP1=0, select bank0
  1259     023F  083B               	movf	_milisegundos+3,w	;volatile
  1260     0240  00A7               	movwf	_anterior_35w+3
  1261     0241  083A               	movf	_milisegundos+2,w	;volatile
  1262     0242  00A6               	movwf	_anterior_35w+2
  1263     0243  0839               	movf	_milisegundos+1,w	;volatile
  1264     0244  00A5               	movwf	_anterior_35w+1
  1265     0245  0838               	movf	_milisegundos,w	;volatile
  1266     0246  00A4               	movwf	_anterior_35w
  1267                           
  1268                           ;Codigo_fuente.c: 308:            while(milisegundos - anterior_35w <= 1000){
  1269     0247  2A5B               	goto	l1370
  1270     0248                     l1364:
  1271                           
  1272                           ;Codigo_fuente.c: 309:                unid = 1;
  1273     0248  3001               	movlw	1
  1274     0249  1283               	bcf	3,5	;RP0=0, select bank0
  1275     024A  1303               	bcf	3,6	;RP1=0, select bank0
  1276     024B  00C8               	movwf	_unid
  1277     024C  3000               	movlw	0
  1278     024D  00C9               	movwf	_unid+1
  1279     024E                     l1366:
  1280                           
  1281                           ;Codigo_fuente.c: 310:                dece = 0;
  1282     024E  01C6               	clrf	_dece
  1283     024F  01C7               	clrf	_dece+1
  1284     0250                     l1368:
  1285                           
  1286                           ;Codigo_fuente.c: 311:                visualizar(1,on_unidad,on_decena,off);
  1287     0250  01F2               	clrf	visualizar@unidad
  1288     0251  0AF2               	incf	visualizar@unidad,f
  1289     0252  3002               	movlw	2
  1290     0253  00F3               	movwf	visualizar@decena
  1291     0254  01F4               	clrf	visualizar@centena
  1292     0255  3001               	movlw	1
  1293     0256  120A  118A  234C  120A  118A  	fcall	_visualizar
  1294     025B                     l1370:
  1295                           
  1296                           ;Codigo_fuente.c: 308:            while(milisegundos - anterior_35w <= 1000){
  1297     025B  1283               	bcf	3,5	;RP0=0, select bank0
  1298     025C  1303               	bcf	3,6	;RP1=0, select bank0
  1299     025D  0838               	movf	_milisegundos,w	;volatile
  1300     025E  00CC               	movwf	??_mensajes
  1301     025F  0839               	movf	_milisegundos+1,w	;volatile
  1302     0260  00CD               	movwf	??_mensajes+1
  1303     0261  083A               	movf	_milisegundos+2,w	;volatile
  1304     0262  00CE               	movwf	??_mensajes+2
  1305     0263  083B               	movf	_milisegundos+3,w	;volatile
  1306     0264  00CF               	movwf	??_mensajes+3
  1307     0265  0824               	movf	_anterior_35w,w
  1308     0266  02CC               	subwf	??_mensajes,f
  1309     0267  0825               	movf	_anterior_35w+1,w
  1310     0268  1C03               	skipc
  1311     0269  0F25               	incfsz	_anterior_35w+1,w
  1312     026A  2A6C               	goto	u1151
  1313     026B  2A6D               	goto	u1152
  1314     026C                     u1151:
  1315     026C  02CD               	subwf	??_mensajes+1,f
  1316     026D                     u1152:
  1317     026D  0826               	movf	_anterior_35w+2,w
  1318     026E  1C03               	skipc
  1319     026F  0F26               	incfsz	_anterior_35w+2,w
  1320     0270  2A72               	goto	u1153
  1321     0271  2A73               	goto	u1154
  1322     0272                     u1153:
  1323     0272  02CE               	subwf	??_mensajes+2,f
  1324     0273                     u1154:
  1325     0273  0827               	movf	_anterior_35w+3,w
  1326     0274  1C03               	skipc
  1327     0275  0F27               	incfsz	_anterior_35w+3,w
  1328     0276  2A78               	goto	u1155
  1329     0277  2A79               	goto	u1156
  1330     0278                     u1155:
  1331     0278  02CF               	subwf	??_mensajes+3,f
  1332     0279                     u1156:
  1333     0279  084F               	movf	??_mensajes+3,w
  1334     027A  1D03               	btfss	3,2
  1335     027B  2A8B               	goto	u1160
  1336     027C  084E               	movf	??_mensajes+2,w
  1337     027D  1D03               	btfss	3,2
  1338     027E  2A8B               	goto	u1160
  1339     027F  3003               	movlw	3
  1340     0280  024D               	subwf	??_mensajes+1,w
  1341     0281  1D03               	skipz
  1342     0282  2A87               	goto	u1163
  1343     0283  30E9               	movlw	233
  1344     0284  024C               	subwf	??_mensajes,w
  1345     0285  1D03               	skipz
  1346     0286  2A87               	goto	u1163
  1347     0287                     u1163:
  1348     0287  1C03               	btfss	3,0
  1349     0288  2A8A               	goto	u1161
  1350     0289  2A8B               	goto	u1160
  1351     028A                     u1161:
  1352     028A  2A48               	goto	l1364
  1353     028B                     u1160:
  1354     028B                     l1372:
  1355                           
  1356                           ;Codigo_fuente.c: 313:            mensaje_display = mensaje_espera;
  1357     028B  1283               	bcf	3,5	;RP0=0, select bank0
  1358     028C  1303               	bcf	3,6	;RP1=0, select bank0
  1359     028D  01CA               	clrf	_mensaje_display
  1360                           
  1361                           ;Codigo_fuente.c: 314:            break;
  1362     028E  2B3D               	goto	l1400
  1363     028F                     l1374:
  1364                           
  1365                           ;Codigo_fuente.c: 316:            mens_anterior_50w = milisegundos;
  1366     028F  083B               	movf	_milisegundos+3,w	;volatile
  1367     0290  00AB               	movwf	_mens_anterior_50w+3
  1368     0291  083A               	movf	_milisegundos+2,w	;volatile
  1369     0292  00AA               	movwf	_mens_anterior_50w+2
  1370     0293  0839               	movf	_milisegundos+1,w	;volatile
  1371     0294  00A9               	movwf	_mens_anterior_50w+1
  1372     0295  0838               	movf	_milisegundos,w	;volatile
  1373     0296  00A8               	movwf	_mens_anterior_50w
  1374                           
  1375                           ;Codigo_fuente.c: 317:            while(milisegundos - mens_anterior_50w <= 1000){
  1376     0297  2AAB               	goto	l1382
  1377     0298                     l1376:
  1378                           
  1379                           ;Codigo_fuente.c: 318:                unid = 0;
  1380     0298  1283               	bcf	3,5	;RP0=0, select bank0
  1381     0299  1303               	bcf	3,6	;RP1=0, select bank0
  1382     029A  01C8               	clrf	_unid
  1383     029B  01C9               	clrf	_unid+1
  1384     029C                     l1378:
  1385                           
  1386                           ;Codigo_fuente.c: 319:                dece = 5;
  1387     029C  3005               	movlw	5
  1388     029D  00C6               	movwf	_dece
  1389     029E  3000               	movlw	0
  1390     029F  00C7               	movwf	_dece+1
  1391     02A0                     l1380:
  1392                           
  1393                           ;Codigo_fuente.c: 320:                visualizar(0, on_unidad, on_decena, off);
  1394     02A0  01F2               	clrf	visualizar@unidad
  1395     02A1  0AF2               	incf	visualizar@unidad,f
  1396     02A2  3002               	movlw	2
  1397     02A3  00F3               	movwf	visualizar@decena
  1398     02A4  01F4               	clrf	visualizar@centena
  1399     02A5  3000               	movlw	0
  1400     02A6  120A  118A  234C  120A  118A  	fcall	_visualizar
  1401     02AB                     l1382:
  1402                           
  1403                           ;Codigo_fuente.c: 317:            while(milisegundos - mens_anterior_50w <= 1000){
  1404     02AB  1283               	bcf	3,5	;RP0=0, select bank0
  1405     02AC  1303               	bcf	3,6	;RP1=0, select bank0
  1406     02AD  0838               	movf	_milisegundos,w	;volatile
  1407     02AE  00CC               	movwf	??_mensajes
  1408     02AF  0839               	movf	_milisegundos+1,w	;volatile
  1409     02B0  00CD               	movwf	??_mensajes+1
  1410     02B1  083A               	movf	_milisegundos+2,w	;volatile
  1411     02B2  00CE               	movwf	??_mensajes+2
  1412     02B3  083B               	movf	_milisegundos+3,w	;volatile
  1413     02B4  00CF               	movwf	??_mensajes+3
  1414     02B5  0828               	movf	_mens_anterior_50w,w
  1415     02B6  02CC               	subwf	??_mensajes,f
  1416     02B7  0829               	movf	_mens_anterior_50w+1,w
  1417     02B8  1C03               	skipc
  1418     02B9  0F29               	incfsz	_mens_anterior_50w+1,w
  1419     02BA  2ABC               	goto	u1171
  1420     02BB  2ABD               	goto	u1172
  1421     02BC                     u1171:
  1422     02BC  02CD               	subwf	??_mensajes+1,f
  1423     02BD                     u1172:
  1424     02BD  082A               	movf	_mens_anterior_50w+2,w
  1425     02BE  1C03               	skipc
  1426     02BF  0F2A               	incfsz	_mens_anterior_50w+2,w
  1427     02C0  2AC2               	goto	u1173
  1428     02C1  2AC3               	goto	u1174
  1429     02C2                     u1173:
  1430     02C2  02CE               	subwf	??_mensajes+2,f
  1431     02C3                     u1174:
  1432     02C3  082B               	movf	_mens_anterior_50w+3,w
  1433     02C4  1C03               	skipc
  1434     02C5  0F2B               	incfsz	_mens_anterior_50w+3,w
  1435     02C6  2AC8               	goto	u1175
  1436     02C7  2AC9               	goto	u1176
  1437     02C8                     u1175:
  1438     02C8  02CF               	subwf	??_mensajes+3,f
  1439     02C9                     u1176:
  1440     02C9  084F               	movf	??_mensajes+3,w
  1441     02CA  1D03               	btfss	3,2
  1442     02CB  2ADB               	goto	u1180
  1443     02CC  084E               	movf	??_mensajes+2,w
  1444     02CD  1D03               	btfss	3,2
  1445     02CE  2ADB               	goto	u1180
  1446     02CF  3003               	movlw	3
  1447     02D0  024D               	subwf	??_mensajes+1,w
  1448     02D1  1D03               	skipz
  1449     02D2  2AD7               	goto	u1183
  1450     02D3  30E9               	movlw	233
  1451     02D4  024C               	subwf	??_mensajes,w
  1452     02D5  1D03               	skipz
  1453     02D6  2AD7               	goto	u1183
  1454     02D7                     u1183:
  1455     02D7  1C03               	btfss	3,0
  1456     02D8  2ADA               	goto	u1181
  1457     02D9  2ADB               	goto	u1180
  1458     02DA                     u1181:
  1459     02DA  2A98               	goto	l1376
  1460     02DB                     u1180:
  1461     02DB                     l1384:
  1462                           
  1463                           ;Codigo_fuente.c: 323:            anterior_50w = milisegundos;
  1464     02DB  1283               	bcf	3,5	;RP0=0, select bank0
  1465     02DC  1303               	bcf	3,6	;RP1=0, select bank0
  1466     02DD  083B               	movf	_milisegundos+3,w	;volatile
  1467     02DE  00AF               	movwf	_anterior_50w+3
  1468     02DF  083A               	movf	_milisegundos+2,w	;volatile
  1469     02E0  00AE               	movwf	_anterior_50w+2
  1470     02E1  0839               	movf	_milisegundos+1,w	;volatile
  1471     02E2  00AD               	movwf	_anterior_50w+1
  1472     02E3  0838               	movf	_milisegundos,w	;volatile
  1473     02E4  00AC               	movwf	_anterior_50w
  1474                           
  1475                           ;Codigo_fuente.c: 324:            while(milisegundos - anterior_50w <= 1000){
  1476     02E5  2AF9               	goto	l1392
  1477     02E6                     l1386:
  1478                           
  1479                           ;Codigo_fuente.c: 325:                unid = 1;
  1480     02E6  3001               	movlw	1
  1481     02E7  1283               	bcf	3,5	;RP0=0, select bank0
  1482     02E8  1303               	bcf	3,6	;RP1=0, select bank0
  1483     02E9  00C8               	movwf	_unid
  1484     02EA  3000               	movlw	0
  1485     02EB  00C9               	movwf	_unid+1
  1486     02EC                     l1388:
  1487                           
  1488                           ;Codigo_fuente.c: 326:                dece = 0;
  1489     02EC  01C6               	clrf	_dece
  1490     02ED  01C7               	clrf	_dece+1
  1491     02EE                     l1390:
  1492                           
  1493                           ;Codigo_fuente.c: 327:                visualizar(1,on_unidad, on_decena, off);
  1494     02EE  01F2               	clrf	visualizar@unidad
  1495     02EF  0AF2               	incf	visualizar@unidad,f
  1496     02F0  3002               	movlw	2
  1497     02F1  00F3               	movwf	visualizar@decena
  1498     02F2  01F4               	clrf	visualizar@centena
  1499     02F3  3001               	movlw	1
  1500     02F4  120A  118A  234C  120A  118A  	fcall	_visualizar
  1501     02F9                     l1392:
  1502                           
  1503                           ;Codigo_fuente.c: 324:            while(milisegundos - anterior_50w <= 1000){
  1504     02F9  1283               	bcf	3,5	;RP0=0, select bank0
  1505     02FA  1303               	bcf	3,6	;RP1=0, select bank0
  1506     02FB  0838               	movf	_milisegundos,w	;volatile
  1507     02FC  00CC               	movwf	??_mensajes
  1508     02FD  0839               	movf	_milisegundos+1,w	;volatile
  1509     02FE  00CD               	movwf	??_mensajes+1
  1510     02FF  083A               	movf	_milisegundos+2,w	;volatile
  1511     0300  00CE               	movwf	??_mensajes+2
  1512     0301  083B               	movf	_milisegundos+3,w	;volatile
  1513     0302  00CF               	movwf	??_mensajes+3
  1514     0303  082C               	movf	_anterior_50w,w
  1515     0304  02CC               	subwf	??_mensajes,f
  1516     0305  082D               	movf	_anterior_50w+1,w
  1517     0306  1C03               	skipc
  1518     0307  0F2D               	incfsz	_anterior_50w+1,w
  1519     0308  2B0A               	goto	u1191
  1520     0309  2B0B               	goto	u1192
  1521     030A                     u1191:
  1522     030A  02CD               	subwf	??_mensajes+1,f
  1523     030B                     u1192:
  1524     030B  082E               	movf	_anterior_50w+2,w
  1525     030C  1C03               	skipc
  1526     030D  0F2E               	incfsz	_anterior_50w+2,w
  1527     030E  2B10               	goto	u1193
  1528     030F  2B11               	goto	u1194
  1529     0310                     u1193:
  1530     0310  02CE               	subwf	??_mensajes+2,f
  1531     0311                     u1194:
  1532     0311  082F               	movf	_anterior_50w+3,w
  1533     0312  1C03               	skipc
  1534     0313  0F2F               	incfsz	_anterior_50w+3,w
  1535     0314  2B16               	goto	u1195
  1536     0315  2B17               	goto	u1196
  1537     0316                     u1195:
  1538     0316  02CF               	subwf	??_mensajes+3,f
  1539     0317                     u1196:
  1540     0317  084F               	movf	??_mensajes+3,w
  1541     0318  1D03               	btfss	3,2
  1542     0319  2B29               	goto	u1200
  1543     031A  084E               	movf	??_mensajes+2,w
  1544     031B  1D03               	btfss	3,2
  1545     031C  2B29               	goto	u1200
  1546     031D  3003               	movlw	3
  1547     031E  024D               	subwf	??_mensajes+1,w
  1548     031F  1D03               	skipz
  1549     0320  2B25               	goto	u1203
  1550     0321  30E9               	movlw	233
  1551     0322  024C               	subwf	??_mensajes,w
  1552     0323  1D03               	skipz
  1553     0324  2B25               	goto	u1203
  1554     0325                     u1203:
  1555     0325  1C03               	btfss	3,0
  1556     0326  2B28               	goto	u1201
  1557     0327  2B29               	goto	u1200
  1558     0328                     u1201:
  1559     0328  2AE6               	goto	l1386
  1560     0329                     u1200:
  1561     0329  2A8B               	goto	l1372
  1562     032A                     l1398:
  1563     032A  084A               	movf	_mensaje_display,w
  1564     032B  00CC               	movwf	??_mensajes
  1565     032C  01CD               	clrf	??_mensajes+1
  1566                           
  1567                           ; Switch on 2 bytes has been partitioned into a top level switch of size 1, and 1 sub-sw
      +                          itches
  1568                           ; Switch size 1, requested type "simple"
  1569                           ; Number of cases is 1, Range of values is 0 to 0
  1570                           ; switch strategies available:
  1571                           ; Name         Instructions Cycles
  1572                           ; simple_byte            4     3 (average)
  1573                           ; direct_byte           11     8 (fixed)
  1574                           ; jumptable            260     6 (fixed)
  1575                           ;	Chosen strategy is simple_byte
  1576     032D  084D               	movf	??_mensajes+1,w
  1577     032E  3A00               	xorlw	0	; case 0
  1578     032F  1903               	skipnz
  1579     0330  2B32               	goto	l1552
  1580     0331  2B3D               	goto	l1400
  1581     0332                     l1552:
  1582                           
  1583                           ; Switch size 1, requested type "simple"
  1584                           ; Number of cases is 3, Range of values is 0 to 2
  1585                           ; switch strategies available:
  1586                           ; Name         Instructions Cycles
  1587                           ; simple_byte           10     6 (average)
  1588                           ; direct_byte           17     8 (fixed)
  1589                           ; jumptable            260     6 (fixed)
  1590                           ;	Chosen strategy is simple_byte
  1591     0332  084C               	movf	??_mensajes,w
  1592     0333  3A00               	xorlw	0	; case 0
  1593     0334  1903               	skipnz
  1594     0335  29D8               	goto	l1348
  1595     0336  3A01               	xorlw	1	; case 1
  1596     0337  1903               	skipnz
  1597     0338  29EF               	goto	l1354
  1598     0339  3A03               	xorlw	3	; case 2
  1599     033A  1903               	skipnz
  1600     033B  2A8F               	goto	l1374
  1601     033C  2B3D               	goto	l1400
  1602     033D                     l1400:
  1603                           
  1604                           ;Codigo_fuente.c: 332:    unid = guarda_u;
  1605     033D  1283               	bcf	3,5	;RP0=0, select bank0
  1606     033E  1303               	bcf	3,6	;RP1=0, select bank0
  1607     033F  0841               	movf	mensajes@guarda_u+1,w
  1608     0340  00C9               	movwf	_unid+1
  1609     0341  0840               	movf	mensajes@guarda_u,w
  1610     0342  00C8               	movwf	_unid
  1611                           
  1612                           ;Codigo_fuente.c: 333:    dece = guarda_d;
  1613     0343  083F               	movf	mensajes@guarda_d+1,w
  1614     0344  00C7               	movwf	_dece+1
  1615     0345  083E               	movf	mensajes@guarda_d,w
  1616     0346  00C6               	movwf	_dece
  1617                           
  1618                           ;Codigo_fuente.c: 334:    cent = guarda_c;
  1619     0347  083D               	movf	mensajes@guarda_c+1,w
  1620     0348  00C5               	movwf	_cent+1
  1621     0349  083C               	movf	mensajes@guarda_c,w
  1622     034A  00C4               	movwf	_cent
  1623     034B                     l182:
  1624     034B  0008               	return
  1625     034C                     __end_of_mensajes:
  1626                           
  1627                           	psect	text2
  1628     034C                     __ptext2:	
  1629 ;; *************** function _visualizar *****************
  1630 ;; Defined at:
  1631 ;;		line 199 in file "Codigo_fuente.c"
  1632 ;; Parameters:    Size  Location     Type
  1633 ;;  VER             1    wreg     unsigned char 
  1634 ;;  unidad          1    2[COMMON] unsigned char 
  1635 ;;  decena          1    3[COMMON] unsigned char 
  1636 ;;  centena         1    4[COMMON] unsigned char 
  1637 ;; Auto vars:     Size  Location     Type
  1638 ;;  VER             1    7[COMMON] unsigned char 
  1639 ;; Return value:  Size  Location     Type
  1640 ;;                  1    wreg      void 
  1641 ;; Registers used:
  1642 ;;		wreg, fsr0l, fsr0h, status,2, status,0, pclath
  1643 ;; Tracked objects:
  1644 ;;		On entry : 0/0
  1645 ;;		On exit  : 0/0
  1646 ;;		Unchanged: 0/0
  1647 ;; Data sizes:     COMMON   BANK0   BANK1   BANK3   BANK2
  1648 ;;      Params:         3       0       0       0       0
  1649 ;;      Locals:         1       0       0       0       0
  1650 ;;      Temps:          2       0       0       0       0
  1651 ;;      Totals:         6       0       0       0       0
  1652 ;;Total ram usage:        6 bytes
  1653 ;; Hardware stack levels used: 2
  1654 ;; Hardware stack levels required when called: 1
  1655 ;; This function calls:
  1656 ;;		Nothing
  1657 ;; This function is called by:
  1658 ;;		_main
  1659 ;;		_mensajes
  1660 ;; This function uses a non-reentrant model
  1661 ;;
  1662                           
  1663     034C                     _visualizar:	
  1664                           ;psect for function _visualizar
  1665                           
  1666                           
  1667                           ;incstack = 0
  1668                           ; Regs used in _visualizar: [wreg-fsr0h+status,2+status,0+pclath]
  1669                           ;visualizar@VER stored from wreg
  1670     034C  00F7               	movwf	visualizar@VER
  1671     034D                     l1036:
  1672                           
  1673                           ;Codigo_fuente.c: 201:     if(on_unidad == unidad){
  1674     034D  0372               	decf	visualizar@unidad,w
  1675     034E  1D03               	btfss	3,2
  1676     034F  2B51               	goto	u571
  1677     0350  2B52               	goto	u570
  1678     0351                     u571:
  1679     0351  2B75               	goto	l129
  1680     0352                     u570:
  1681     0352                     l1038:
  1682                           
  1683                           ;Codigo_fuente.c: 202:         PORTA = 0XFF;
  1684     0352  30FF               	movlw	255
  1685     0353  1283               	bcf	3,5	;RP0=0, select bank0
  1686     0354  1303               	bcf	3,6	;RP1=0, select bank0
  1687     0355  0085               	movwf	5	;volatile
  1688                           
  1689                           ;Codigo_fuente.c: 203:         switch(VER){
  1690     0356  2B6B               	goto	l1046
  1691     0357                     l1040:
  1692                           
  1693                           ;Codigo_fuente.c: 205:                 PORTD = display[unid];
  1694     0357  0848               	movf	_unid,w
  1695     0358  3E01               	addlw	low ((_display-__stringbase)| (0+32768))
  1696     0359  0084               	movwf	4
  1697     035A  120A  118A  24A1  120A  118A  	fcall	stringdir
  1698     035F  0088               	movwf	8	;volatile
  1699                           
  1700                           ;Codigo_fuente.c: 206:                 break;
  1701     0360  2B73               	goto	l1048
  1702     0361                     l1042:
  1703                           
  1704                           ;Codigo_fuente.c: 208:                 PORTD = mensaje_on[unid];
  1705     0361  0848               	movf	_unid,w
  1706     0362  3E0B               	addlw	low ((_mensaje_on-__stringbase)| (0+32768))
  1707     0363  0084               	movwf	4
  1708     0364  120A  118A  24A1  120A  118A  	fcall	stringdir
  1709     0369  0088               	movwf	8	;volatile
  1710                           
  1711                           ;Codigo_fuente.c: 209:                 break;
  1712     036A  2B73               	goto	l1048
  1713     036B                     l1046:
  1714     036B  0877               	movf	visualizar@VER,w
  1715                           
  1716                           ; Switch size 1, requested type "simple"
  1717                           ; Number of cases is 2, Range of values is 0 to 1
  1718                           ; switch strategies available:
  1719                           ; Name         Instructions Cycles
  1720                           ; simple_byte            7     4 (average)
  1721                           ; direct_byte           14     8 (fixed)
  1722                           ; jumptable            260     6 (fixed)
  1723                           ;	Chosen strategy is simple_byte
  1724     036C  3A00               	xorlw	0	; case 0
  1725     036D  1903               	skipnz
  1726     036E  2B57               	goto	l1040
  1727     036F  3A01               	xorlw	1	; case 1
  1728     0370  1903               	skipnz
  1729     0371  2B61               	goto	l1042
  1730     0372  2B73               	goto	l1048
  1731     0373                     l1048:
  1732                           
  1733                           ;Codigo_fuente.c: 211:         PORTA = (unsigned char)(~(1<<0));
  1734     0373  30FE               	movlw	254
  1735     0374  0085               	movwf	5	;volatile
  1736     0375                     l129:	
  1737                           ;Codigo_fuente.c: 214:     }
  1738                           
  1739                           
  1740                           ;Codigo_fuente.c: 215:     _delay((unsigned long)((5)*(4000000/4000.0)));
  1741     0375  3007               	movlw	7
  1742     0376  00F6               	movwf	??_visualizar+1
  1743     0377  307D               	movlw	125
  1744     0378  00F5               	movwf	??_visualizar
  1745     0379                     u1627:
  1746     0379  0BF5               	decfsz	??_visualizar,f
  1747     037A  2B79               	goto	u1627
  1748     037B  0BF6               	decfsz	??_visualizar+1,f
  1749     037C  2B79               	goto	u1627
  1750     037D                     l1050:
  1751                           
  1752                           ;Codigo_fuente.c: 217:     if(on_decena == decena){
  1753     037D  3002               	movlw	2
  1754     037E  0673               	xorwf	visualizar@decena,w
  1755     037F  1D03               	btfss	3,2
  1756     0380  2B82               	goto	u581
  1757     0381  2B83               	goto	u580
  1758     0382                     u581:
  1759     0382  2BA6               	goto	l134
  1760     0383                     u580:
  1761     0383                     l1052:
  1762                           
  1763                           ;Codigo_fuente.c: 218:         PORTA = 0XFF;
  1764     0383  30FF               	movlw	255
  1765     0384  1283               	bcf	3,5	;RP0=0, select bank0
  1766     0385  1303               	bcf	3,6	;RP1=0, select bank0
  1767     0386  0085               	movwf	5	;volatile
  1768                           
  1769                           ;Codigo_fuente.c: 219:         switch(VER){
  1770     0387  2B9C               	goto	l1060
  1771     0388                     l1054:
  1772                           
  1773                           ;Codigo_fuente.c: 221:             PORTD = display[dece];
  1774     0388  0846               	movf	_dece,w
  1775     0389  3E01               	addlw	low ((_display-__stringbase)| (0+32768))
  1776     038A  0084               	movwf	4
  1777     038B  120A  118A  24A1  120A  118A  	fcall	stringdir
  1778     0390  0088               	movwf	8	;volatile
  1779                           
  1780                           ;Codigo_fuente.c: 222:             break;
  1781     0391  2BA4               	goto	l1062
  1782     0392                     l1056:
  1783                           
  1784                           ;Codigo_fuente.c: 224:             PORTD = mensaje_on[dece];
  1785     0392  0846               	movf	_dece,w
  1786     0393  3E0B               	addlw	low ((_mensaje_on-__stringbase)| (0+32768))
  1787     0394  0084               	movwf	4
  1788     0395  120A  118A  24A1  120A  118A  	fcall	stringdir
  1789     039A  0088               	movwf	8	;volatile
  1790                           
  1791                           ;Codigo_fuente.c: 225:             break;
  1792     039B  2BA4               	goto	l1062
  1793     039C                     l1060:
  1794     039C  0877               	movf	visualizar@VER,w
  1795                           
  1796                           ; Switch size 1, requested type "simple"
  1797                           ; Number of cases is 2, Range of values is 0 to 1
  1798                           ; switch strategies available:
  1799                           ; Name         Instructions Cycles
  1800                           ; simple_byte            7     4 (average)
  1801                           ; direct_byte           14     8 (fixed)
  1802                           ; jumptable            260     6 (fixed)
  1803                           ;	Chosen strategy is simple_byte
  1804     039D  3A00               	xorlw	0	; case 0
  1805     039E  1903               	skipnz
  1806     039F  2B88               	goto	l1054
  1807     03A0  3A01               	xorlw	1	; case 1
  1808     03A1  1903               	skipnz
  1809     03A2  2B92               	goto	l1056
  1810     03A3  2BA4               	goto	l1062
  1811     03A4                     l1062:
  1812                           
  1813                           ;Codigo_fuente.c: 227:         PORTA = (unsigned char)(~(1<<1));
  1814     03A4  30FD               	movlw	253
  1815     03A5  0085               	movwf	5	;volatile
  1816     03A6                     l134:	
  1817                           ;Codigo_fuente.c: 230:     }
  1818                           
  1819                           
  1820                           ;Codigo_fuente.c: 231:     _delay((unsigned long)((5)*(4000000/4000.0)));
  1821     03A6  3007               	movlw	7
  1822     03A7  00F6               	movwf	??_visualizar+1
  1823     03A8  307D               	movlw	125
  1824     03A9  00F5               	movwf	??_visualizar
  1825     03AA                     u1637:
  1826     03AA  0BF5               	decfsz	??_visualizar,f
  1827     03AB  2BAA               	goto	u1637
  1828     03AC  0BF6               	decfsz	??_visualizar+1,f
  1829     03AD  2BAA               	goto	u1637
  1830     03AE                     l1064:
  1831                           
  1832                           ;Codigo_fuente.c: 233:     if(on_centena == centena){
  1833     03AE  3003               	movlw	3
  1834     03AF  0674               	xorwf	visualizar@centena,w
  1835     03B0  1D03               	btfss	3,2
  1836     03B1  2BB3               	goto	u591
  1837     03B2  2BB4               	goto	u590
  1838     03B3                     u591:
  1839     03B3  2BD7               	goto	l139
  1840     03B4                     u590:
  1841     03B4                     l1066:
  1842                           
  1843                           ;Codigo_fuente.c: 234:         PORTA = 0XFF;
  1844     03B4  30FF               	movlw	255
  1845     03B5  1283               	bcf	3,5	;RP0=0, select bank0
  1846     03B6  1303               	bcf	3,6	;RP1=0, select bank0
  1847     03B7  0085               	movwf	5	;volatile
  1848                           
  1849                           ;Codigo_fuente.c: 235:         switch(VER){
  1850     03B8  2BCD               	goto	l1074
  1851     03B9                     l1068:
  1852                           
  1853                           ;Codigo_fuente.c: 237:                 PORTD = display[cent];
  1854     03B9  0844               	movf	_cent,w
  1855     03BA  3E01               	addlw	low ((_display-__stringbase)| (0+32768))
  1856     03BB  0084               	movwf	4
  1857     03BC  120A  118A  24A1  120A  118A  	fcall	stringdir
  1858     03C1  0088               	movwf	8	;volatile
  1859                           
  1860                           ;Codigo_fuente.c: 238:                 break;
  1861     03C2  2BD5               	goto	l1076
  1862     03C3                     l1070:
  1863                           
  1864                           ;Codigo_fuente.c: 240:                 PORTD = mensaje_on[cent];
  1865     03C3  0844               	movf	_cent,w
  1866     03C4  3E0B               	addlw	low ((_mensaje_on-__stringbase)| (0+32768))
  1867     03C5  0084               	movwf	4
  1868     03C6  120A  118A  24A1  120A  118A  	fcall	stringdir
  1869     03CB  0088               	movwf	8	;volatile
  1870                           
  1871                           ;Codigo_fuente.c: 241:                 break;
  1872     03CC  2BD5               	goto	l1076
  1873     03CD                     l1074:
  1874     03CD  0877               	movf	visualizar@VER,w
  1875                           
  1876                           ; Switch size 1, requested type "simple"
  1877                           ; Number of cases is 2, Range of values is 0 to 1
  1878                           ; switch strategies available:
  1879                           ; Name         Instructions Cycles
  1880                           ; simple_byte            7     4 (average)
  1881                           ; direct_byte           14     8 (fixed)
  1882                           ; jumptable            260     6 (fixed)
  1883                           ;	Chosen strategy is simple_byte
  1884     03CE  3A00               	xorlw	0	; case 0
  1885     03CF  1903               	skipnz
  1886     03D0  2BB9               	goto	l1068
  1887     03D1  3A01               	xorlw	1	; case 1
  1888     03D2  1903               	skipnz
  1889     03D3  2BC3               	goto	l1070
  1890     03D4  2BD5               	goto	l1076
  1891     03D5                     l1076:
  1892                           
  1893                           ;Codigo_fuente.c: 243:         PORTA = (unsigned char)(~(1<<2));
  1894     03D5  30FB               	movlw	251
  1895     03D6  0085               	movwf	5	;volatile
  1896     03D7                     l139:	
  1897                           ;Codigo_fuente.c: 246:     }
  1898                           
  1899                           
  1900                           ;Codigo_fuente.c: 247:     _delay((unsigned long)((5)*(4000000/4000.0)));
  1901     03D7  3007               	movlw	7
  1902     03D8  00F6               	movwf	??_visualizar+1
  1903     03D9  307D               	movlw	125
  1904     03DA  00F5               	movwf	??_visualizar
  1905     03DB                     u1647:
  1906     03DB  0BF5               	decfsz	??_visualizar,f
  1907     03DC  2BDB               	goto	u1647
  1908     03DD  0BF6               	decfsz	??_visualizar+1,f
  1909     03DE  2BDB               	goto	u1647
  1910     03DF                     l144:
  1911     03DF  0008               	return
  1912     03E0                     __end_of_visualizar:
  1913                           
  1914                           	psect	text3
  1915     03E0                     __ptext3:	
  1916 ;; *************** function _incremento_time *****************
  1917 ;; Defined at:
  1918 ;;		line 249 in file "Codigo_fuente.c"
  1919 ;; Parameters:    Size  Location     Type
  1920 ;;		None
  1921 ;; Auto vars:     Size  Location     Type
  1922 ;;		None
  1923 ;; Return value:  Size  Location     Type
  1924 ;;                  1    wreg      void 
  1925 ;; Registers used:
  1926 ;;		wreg, status,2, btemp+1
  1927 ;; Tracked objects:
  1928 ;;		On entry : 0/0
  1929 ;;		On exit  : 0/0
  1930 ;;		Unchanged: 0/0
  1931 ;; Data sizes:     COMMON   BANK0   BANK1   BANK3   BANK2
  1932 ;;      Params:         0       0       0       0       0
  1933 ;;      Locals:         0       0       0       0       0
  1934 ;;      Temps:          0       0       0       0       0
  1935 ;;      Totals:         0       0       0       0       0
  1936 ;;Total ram usage:        0 bytes
  1937 ;; Hardware stack levels used: 1
  1938 ;; Hardware stack levels required when called: 1
  1939 ;; This function calls:
  1940 ;;		Nothing
  1941 ;; This function is called by:
  1942 ;;		_main
  1943 ;; This function uses a non-reentrant model
  1944 ;;
  1945                           
  1946     03E0                     _incremento_time:	
  1947                           ;psect for function _incremento_time
  1948                           
  1949     03E0                     l1176:	
  1950                           ;incstack = 0
  1951                           ; Regs used in _incremento_time: [wreg+status,2+btemp+1]
  1952                           
  1953                           
  1954                           ;Codigo_fuente.c: 250:     unid = cont;
  1955     03E0  1283               	bcf	3,5	;RP0=0, select bank0
  1956     03E1  1303               	bcf	3,6	;RP1=0, select bank0
  1957     03E2  0843               	movf	_cont+1,w
  1958     03E3  00C9               	movwf	_unid+1
  1959     03E4  0842               	movf	_cont,w
  1960     03E5  00C8               	movwf	_unid
  1961     03E6                     l1178:
  1962                           
  1963                           ;Codigo_fuente.c: 251:         if(cont>= 10){
  1964     03E6  0843               	movf	_cont+1,w
  1965     03E7  3A80               	xorlw	128
  1966     03E8  00FF               	movwf	btemp+1
  1967     03E9  3080               	movlw	128
  1968     03EA  027F               	subwf	btemp+1,w
  1969     03EB  1D03               	skipz
  1970     03EC  2BEF               	goto	u715
  1971     03ED  300A               	movlw	10
  1972     03EE  0242               	subwf	_cont,w
  1973     03EF                     u715:
  1974     03EF  1C03               	skipc
  1975     03F0  2BF2               	goto	u711
  1976     03F1  2BF3               	goto	u710
  1977     03F2                     u711:
  1978     03F2  2C25               	goto	l150
  1979     03F3                     u710:
  1980     03F3                     l1180:
  1981                           
  1982                           ;Codigo_fuente.c: 252:             dece++;
  1983     03F3  3001               	movlw	1
  1984     03F4  1283               	bcf	3,5	;RP0=0, select bank0
  1985     03F5  1303               	bcf	3,6	;RP1=0, select bank0
  1986     03F6  07C6               	addwf	_dece,f
  1987     03F7  1803               	skipnc
  1988     03F8  0AC7               	incf	_dece+1,f
  1989     03F9  3000               	movlw	0
  1990     03FA  07C7               	addwf	_dece+1,f
  1991     03FB                     l1182:
  1992                           
  1993                           ;Codigo_fuente.c: 253:             cont = 0;
  1994     03FB  01C2               	clrf	_cont
  1995     03FC  01C3               	clrf	_cont+1
  1996     03FD                     l1184:
  1997                           
  1998                           ;Codigo_fuente.c: 255:             if(dece >= 10){
  1999     03FD  0847               	movf	_dece+1,w
  2000     03FE  3A80               	xorlw	128
  2001     03FF  00FF               	movwf	btemp+1
  2002     0400  3080               	movlw	128
  2003     0401  027F               	subwf	btemp+1,w
  2004     0402  1D03               	skipz
  2005     0403  2C06               	goto	u725
  2006     0404  300A               	movlw	10
  2007     0405  0246               	subwf	_dece,w
  2008     0406                     u725:
  2009     0406  1C03               	skipc
  2010     0407  2C09               	goto	u721
  2011     0408  2C0A               	goto	u720
  2012     0409                     u721:
  2013     0409  2C25               	goto	l150
  2014     040A                     u720:
  2015     040A                     l1186:
  2016                           
  2017                           ;Codigo_fuente.c: 256:                 cent++;
  2018     040A  3001               	movlw	1
  2019     040B  1283               	bcf	3,5	;RP0=0, select bank0
  2020     040C  1303               	bcf	3,6	;RP1=0, select bank0
  2021     040D  07C4               	addwf	_cent,f
  2022     040E  1803               	skipnc
  2023     040F  0AC5               	incf	_cent+1,f
  2024     0410  3000               	movlw	0
  2025     0411  07C5               	addwf	_cent+1,f
  2026     0412                     l1188:
  2027                           
  2028                           ;Codigo_fuente.c: 257:                 dece = 0;
  2029     0412  01C6               	clrf	_dece
  2030     0413  01C7               	clrf	_dece+1
  2031     0414                     l1190:
  2032                           
  2033                           ;Codigo_fuente.c: 258:                 if(cent >=10){
  2034     0414  0845               	movf	_cent+1,w
  2035     0415  3A80               	xorlw	128
  2036     0416  00FF               	movwf	btemp+1
  2037     0417  3080               	movlw	128
  2038     0418  027F               	subwf	btemp+1,w
  2039     0419  1D03               	skipz
  2040     041A  2C1D               	goto	u735
  2041     041B  300A               	movlw	10
  2042     041C  0244               	subwf	_cent,w
  2043     041D                     u735:
  2044     041D  1C03               	skipc
  2045     041E  2C20               	goto	u731
  2046     041F  2C21               	goto	u730
  2047     0420                     u731:
  2048     0420  2C25               	goto	l150
  2049     0421                     u730:
  2050     0421                     l1192:
  2051                           
  2052                           ;Codigo_fuente.c: 259:                     cent = 0;
  2053     0421  1283               	bcf	3,5	;RP0=0, select bank0
  2054     0422  1303               	bcf	3,6	;RP1=0, select bank0
  2055     0423  01C4               	clrf	_cent
  2056     0424  01C5               	clrf	_cent+1
  2057     0425                     l150:
  2058     0425  0008               	return
  2059     0426                     __end_of_incremento_time:
  2060                           
  2061                           	psect	text4
  2062     0426                     __ptext4:	
  2063 ;; *************** function _decremento_time *****************
  2064 ;; Defined at:
  2065 ;;		line 264 in file "Codigo_fuente.c"
  2066 ;; Parameters:    Size  Location     Type
  2067 ;;		None
  2068 ;; Auto vars:     Size  Location     Type
  2069 ;;		None
  2070 ;; Return value:  Size  Location     Type
  2071 ;;                  1    wreg      void 
  2072 ;; Registers used:
  2073 ;;		wreg, status,2
  2074 ;; Tracked objects:
  2075 ;;		On entry : 0/0
  2076 ;;		On exit  : 0/0
  2077 ;;		Unchanged: 0/0
  2078 ;; Data sizes:     COMMON   BANK0   BANK1   BANK3   BANK2
  2079 ;;      Params:         0       0       0       0       0
  2080 ;;      Locals:         0       0       0       0       0
  2081 ;;      Temps:          0       0       0       0       0
  2082 ;;      Totals:         0       0       0       0       0
  2083 ;;Total ram usage:        0 bytes
  2084 ;; Hardware stack levels used: 1
  2085 ;; Hardware stack levels required when called: 1
  2086 ;; This function calls:
  2087 ;;		Nothing
  2088 ;; This function is called by:
  2089 ;;		_main
  2090 ;; This function uses a non-reentrant model
  2091 ;;
  2092                           
  2093     0426                     _decremento_time:	
  2094                           ;psect for function _decremento_time
  2095                           
  2096     0426                     l1162:	
  2097                           ;incstack = 0
  2098                           ; Regs used in _decremento_time: [wreg+status,2]
  2099                           
  2100                           
  2101                           ;Codigo_fuente.c: 265:     unid = cont;
  2102     0426  1283               	bcf	3,5	;RP0=0, select bank0
  2103     0427  1303               	bcf	3,6	;RP1=0, select bank0
  2104     0428  0843               	movf	_cont+1,w
  2105     0429  00C9               	movwf	_unid+1
  2106     042A  0842               	movf	_cont,w
  2107     042B  00C8               	movwf	_unid
  2108     042C                     l1164:
  2109                           
  2110                           ;Codigo_fuente.c: 266:     if(unid < 0){
  2111     042C  1FC9               	btfss	_unid+1,7
  2112     042D  2C2F               	goto	u681
  2113     042E  2C30               	goto	u680
  2114     042F                     u681:
  2115     042F  2C59               	goto	l156
  2116     0430                     u680:
  2117     0430                     l1166:
  2118                           
  2119                           ;Codigo_fuente.c: 267:         cont = 9;
  2120     0430  3009               	movlw	9
  2121     0431  00C2               	movwf	_cont
  2122     0432  3000               	movlw	0
  2123     0433  00C3               	movwf	_cont+1
  2124                           
  2125                           ;Codigo_fuente.c: 268:         unid = cont;
  2126     0434  0843               	movf	_cont+1,w
  2127     0435  00C9               	movwf	_unid+1
  2128     0436  0842               	movf	_cont,w
  2129     0437  00C8               	movwf	_unid
  2130                           
  2131                           ;Codigo_fuente.c: 269:         dece--;
  2132     0438  30FF               	movlw	255
  2133     0439  07C6               	addwf	_dece,f
  2134     043A  1803               	skipnc
  2135     043B  0AC7               	incf	_dece+1,f
  2136     043C  30FF               	movlw	255
  2137     043D  07C7               	addwf	_dece+1,f
  2138     043E                     l1168:
  2139                           
  2140                           ;Codigo_fuente.c: 270:         if(dece < 0){
  2141     043E  1FC7               	btfss	_dece+1,7
  2142     043F  2C41               	goto	u691
  2143     0440  2C42               	goto	u690
  2144     0441                     u691:
  2145     0441  2C59               	goto	l156
  2146     0442                     u690:
  2147     0442                     l1170:
  2148                           
  2149                           ;Codigo_fuente.c: 271:             dece = 9;
  2150     0442  3009               	movlw	9
  2151     0443  00C6               	movwf	_dece
  2152     0444  3000               	movlw	0
  2153     0445  00C7               	movwf	_dece+1
  2154                           
  2155                           ;Codigo_fuente.c: 273:             cent--;
  2156     0446  30FF               	movlw	255
  2157     0447  07C4               	addwf	_cent,f
  2158     0448  1803               	skipnc
  2159     0449  0AC5               	incf	_cent+1,f
  2160     044A  30FF               	movlw	255
  2161     044B  07C5               	addwf	_cent+1,f
  2162     044C                     l1172:
  2163                           
  2164                           ;Codigo_fuente.c: 274:             if(cent < 0){
  2165     044C  1FC5               	btfss	_cent+1,7
  2166     044D  2C4F               	goto	u701
  2167     044E  2C50               	goto	u700
  2168     044F                     u701:
  2169     044F  2C59               	goto	l156
  2170     0450                     u700:
  2171     0450                     l1174:
  2172                           
  2173                           ;Codigo_fuente.c: 275:                 cent = 0;
  2174     0450  01C4               	clrf	_cent
  2175     0451  01C5               	clrf	_cent+1
  2176                           
  2177                           ;Codigo_fuente.c: 276:                 unid = 0;
  2178     0452  01C8               	clrf	_unid
  2179     0453  01C9               	clrf	_unid+1
  2180                           
  2181                           ;Codigo_fuente.c: 277:                 cont = 0;
  2182     0454  01C2               	clrf	_cont
  2183     0455  01C3               	clrf	_cont+1
  2184                           
  2185                           ;Codigo_fuente.c: 278:                 dece = 0;
  2186     0456  01C6               	clrf	_dece
  2187     0457  01C7               	clrf	_dece+1
  2188                           
  2189                           ;Codigo_fuente.c: 279:                 state = 0;
  2190     0458  01F9               	clrf	_state
  2191     0459                     l156:
  2192     0459  0008               	return
  2193     045A                     __end_of_decremento_time:
  2194                           
  2195                           	psect	text5
  2196     045A                     __ptext5:	
  2197 ;; *************** function _config_registros *****************
  2198 ;; Defined at:
  2199 ;;		line 180 in file "Codigo_fuente.c"
  2200 ;; Parameters:    Size  Location     Type
  2201 ;;		None
  2202 ;; Auto vars:     Size  Location     Type
  2203 ;;		None
  2204 ;; Return value:  Size  Location     Type
  2205 ;;                  1    wreg      void 
  2206 ;; Registers used:
  2207 ;;		wreg, status,2, status,0
  2208 ;; Tracked objects:
  2209 ;;		On entry : 0/0
  2210 ;;		On exit  : 0/0
  2211 ;;		Unchanged: 0/0
  2212 ;; Data sizes:     COMMON   BANK0   BANK1   BANK3   BANK2
  2213 ;;      Params:         0       0       0       0       0
  2214 ;;      Locals:         0       0       0       0       0
  2215 ;;      Temps:          0       0       0       0       0
  2216 ;;      Totals:         0       0       0       0       0
  2217 ;;Total ram usage:        0 bytes
  2218 ;; Hardware stack levels used: 1
  2219 ;; Hardware stack levels required when called: 1
  2220 ;; This function calls:
  2221 ;;		Nothing
  2222 ;; This function is called by:
  2223 ;;		_main
  2224 ;; This function uses a non-reentrant model
  2225 ;;
  2226                           
  2227     045A                     _config_registros:	
  2228                           ;psect for function _config_registros
  2229                           
  2230     045A                     l1078:	
  2231                           ;incstack = 0
  2232                           ; Regs used in _config_registros: [wreg+status,2+status,0]
  2233                           
  2234                           
  2235                           ;Codigo_fuente.c: 181:     TRISA = 0x00;
  2236     045A  1683               	bsf	3,5	;RP0=1, select bank1
  2237     045B  1303               	bcf	3,6	;RP1=0, select bank1
  2238     045C  0185               	clrf	5	;volatile
  2239                           
  2240                           ;Codigo_fuente.c: 182:     PORTA = 0x00;
  2241     045D  1283               	bcf	3,5	;RP0=0, select bank0
  2242     045E  1303               	bcf	3,6	;RP1=0, select bank0
  2243     045F  0185               	clrf	5	;volatile
  2244                           
  2245                           ;Codigo_fuente.c: 183:     TRISE = 0x00;
  2246     0460  1683               	bsf	3,5	;RP0=1, select bank1
  2247     0461  1303               	bcf	3,6	;RP1=0, select bank1
  2248     0462  0189               	clrf	9	;volatile
  2249                           
  2250                           ;Codigo_fuente.c: 184:     PORTE = 0x00;
  2251     0463  1283               	bcf	3,5	;RP0=0, select bank0
  2252     0464  1303               	bcf	3,6	;RP1=0, select bank0
  2253     0465  0189               	clrf	9	;volatile
  2254     0466                     l1080:
  2255                           
  2256                           ;Codigo_fuente.c: 185:     TRISB = 0xFF;
  2257     0466  30FF               	movlw	255
  2258     0467  1683               	bsf	3,5	;RP0=1, select bank1
  2259     0468  1303               	bcf	3,6	;RP1=0, select bank1
  2260     0469  0086               	movwf	6	;volatile
  2261     046A                     l1082:
  2262                           
  2263                           ;Codigo_fuente.c: 186:     PORTB = 0X00;
  2264     046A  1283               	bcf	3,5	;RP0=0, select bank0
  2265     046B  1303               	bcf	3,6	;RP1=0, select bank0
  2266     046C  0186               	clrf	6	;volatile
  2267     046D                     l1084:
  2268                           
  2269                           ;Codigo_fuente.c: 187:     TRISD = 0X00;
  2270     046D  1683               	bsf	3,5	;RP0=1, select bank1
  2271     046E  1303               	bcf	3,6	;RP1=0, select bank1
  2272     046F  0188               	clrf	8	;volatile
  2273     0470                     l1086:
  2274                           
  2275                           ;Codigo_fuente.c: 188:     PORTD = 0X00;
  2276     0470  1283               	bcf	3,5	;RP0=0, select bank0
  2277     0471  1303               	bcf	3,6	;RP1=0, select bank0
  2278     0472  0188               	clrf	8	;volatile
  2279     0473                     l1088:
  2280                           
  2281                           ;Codigo_fuente.c: 189:     OPTION_REGbits.nRBPU = 0;
  2282     0473  1683               	bsf	3,5	;RP0=1, select bank1
  2283     0474  1303               	bcf	3,6	;RP1=0, select bank1
  2284     0475  1381               	bcf	1,7	;volatile
  2285     0476                     l1090:
  2286                           
  2287                           ;Codigo_fuente.c: 191:     OPTION_REGbits.PS = 0b010;
  2288     0476  0801               	movf	1,w	;volatile
  2289     0477  39F8               	andlw	-8
  2290     0478  3802               	iorlw	2
  2291     0479  0081               	movwf	1	;volatile
  2292     047A                     l1092:
  2293                           
  2294                           ;Codigo_fuente.c: 192:     OPTION_REGbits.PSA = 0;
  2295     047A  1181               	bcf	1,3	;volatile
  2296     047B                     l1094:
  2297                           
  2298                           ;Codigo_fuente.c: 193:     OPTION_REGbits.T0CS = 0;
  2299     047B  1281               	bcf	1,5	;volatile
  2300     047C                     l1096:
  2301                           
  2302                           ;Codigo_fuente.c: 194:     INTCONbits.GIE = 1;
  2303     047C  178B               	bsf	11,7	;volatile
  2304     047D                     l1098:
  2305                           
  2306                           ;Codigo_fuente.c: 195:     INTCONbits.T0IE = 1;
  2307     047D  168B               	bsf	11,5	;volatile
  2308     047E                     l1100:
  2309                           
  2310                           ;Codigo_fuente.c: 197:     TMR0 = 131;
  2311     047E  3083               	movlw	131
  2312     047F  1283               	bcf	3,5	;RP0=0, select bank0
  2313     0480  1303               	bcf	3,6	;RP1=0, select bank0
  2314     0481  0081               	movwf	1	;volatile
  2315     0482                     l126:
  2316     0482  0008               	return
  2317     0483                     __end_of_config_registros:
  2318                           
  2319                           	psect	text6
  2320     0483                     __ptext6:	
  2321 ;; *************** function _INT_TMR0 *****************
  2322 ;; Defined at:
  2323 ;;		line 83 in file "Codigo_fuente.c"
  2324 ;; Parameters:    Size  Location     Type
  2325 ;;		None
  2326 ;; Auto vars:     Size  Location     Type
  2327 ;;		None
  2328 ;; Return value:  Size  Location     Type
  2329 ;;                  1    wreg      void 
  2330 ;; Registers used:
  2331 ;;		wreg
  2332 ;; Tracked objects:
  2333 ;;		On entry : 0/0
  2334 ;;		On exit  : 0/0
  2335 ;;		Unchanged: 0/0
  2336 ;; Data sizes:     COMMON   BANK0   BANK1   BANK3   BANK2
  2337 ;;      Params:         0       0       0       0       0
  2338 ;;      Locals:         0       0       0       0       0
  2339 ;;      Temps:          2       0       0       0       0
  2340 ;;      Totals:         2       0       0       0       0
  2341 ;;Total ram usage:        2 bytes
  2342 ;; Hardware stack levels used: 1
  2343 ;; This function calls:
  2344 ;;		Nothing
  2345 ;; This function is called by:
  2346 ;;		Interrupt level 1
  2347 ;; This function uses a non-reentrant model
  2348 ;;
  2349                           
  2350     0483                     _INT_TMR0:	
  2351                           ;psect for function _INT_TMR0
  2352                           
  2353     0483                     i1l1194:
  2354                           
  2355                           ;Codigo_fuente.c: 84:     if(INTCONbits.T0IF == 1){
  2356     0483  1D0B               	btfss	11,2	;volatile
  2357     0484  2C86               	goto	u74_21
  2358     0485  2C87               	goto	u74_20
  2359     0486                     u74_21:
  2360     0486  2C9A               	goto	i1l78
  2361     0487                     u74_20:
  2362     0487                     i1l1196:
  2363                           
  2364                           ;Codigo_fuente.c: 85:         INTCONbits.T0IF = 0;
  2365     0487  110B               	bcf	11,2	;volatile
  2366     0488                     i1l1198:
  2367                           
  2368                           ;Codigo_fuente.c: 87:         TMR0 = 131;
  2369     0488  3083               	movlw	131
  2370     0489  1283               	bcf	3,5	;RP0=0, select bank0
  2371     048A  1303               	bcf	3,6	;RP1=0, select bank0
  2372     048B  0081               	movwf	1	;volatile
  2373                           
  2374                           ;Codigo_fuente.c: 88:         milisegundos ++;
  2375     048C  3001               	movlw	1
  2376     048D  07B8               	addwf	_milisegundos,f	;volatile
  2377     048E  3000               	movlw	0
  2378     048F  1803               	skipnc
  2379     0490  3001               	movlw	1
  2380     0491  07B9               	addwf	_milisegundos+1,f	;volatile
  2381     0492  3000               	movlw	0
  2382     0493  1803               	skipnc
  2383     0494  3001               	movlw	1
  2384     0495  07BA               	addwf	_milisegundos+2,f	;volatile
  2385     0496  3000               	movlw	0
  2386     0497  1803               	skipnc
  2387     0498  3001               	movlw	1
  2388     0499  07BB               	addwf	_milisegundos+3,f	;volatile
  2389     049A                     i1l78:
  2390     049A  0871               	movf	??_INT_TMR0+1,w
  2391     049B  008A               	movwf	10
  2392     049C  0E70               	swapf	??_INT_TMR0,w
  2393     049D  0083               	movwf	3
  2394     049E  0EFE               	swapf	btemp,f
  2395     049F  0E7E               	swapf	btemp,w
  2396     04A0  0009               	retfie
  2397     04A1                     __end_of_INT_TMR0:
  2398     007E                     btemp	set	126	;btemp
  2399     007E                     wtemp0	set	126
  2400                           
  2401                           	psect	intentry
  2402     0004                     __pintentry:	
  2403                           ;incstack = 0
  2404                           ; Regs used in _INT_TMR0: [wreg]
  2405                           
  2406     0004                     interrupt_function:
  2407     007E                     saved_w	set	btemp
  2408     0004  00FE               	movwf	btemp
  2409     0005  0E03               	swapf	3,w
  2410     0006  00F0               	movwf	??_INT_TMR0
  2411     0007  080A               	movf	10,w
  2412     0008  00F1               	movwf	??_INT_TMR0+1
  2413     0009  120A  118A  2C83   	ljmp	_INT_TMR0
  2414                           
  2415                           	psect	config
  2416                           
  2417                           ;Config register CONFIG @ 0x2007
  2418                           ;	Oscillator Selection bits
  2419                           ;	FOSC = XT, XT oscillator
  2420                           ;	Watchdog Timer Enable bit
  2421                           ;	WDTE = OFF, WDT disabled
  2422                           ;	Power-up Timer Enable bit
  2423                           ;	PWRTE = OFF, PWRT disabled
  2424                           ;	Brown-out Reset Enable bit
  2425                           ;	BOREN = OFF, BOR disabled
  2426                           ;	Low-Voltage (Single-Supply) In-Circuit Serial Programming Enable bit
  2427                           ;	LVP = OFF, RB3 is digital I/O, HV on MCLR must be used for programming
  2428                           ;	Data EEPROM Memory Code Protection bit
  2429                           ;	CPD = OFF, Data EEPROM code protection off
  2430                           ;	Flash Program Memory Write Enable bits
  2431                           ;	WRT = OFF, Write protection off; all program memory may be written to by EECON control
  2432                           ;	In-Circuit Debugger Mode bit
  2433                           ;	DEBUG = 0x1, unprogrammed default
  2434                           ;	Flash Program Memory Code Protection bit
  2435                           ;	CP = OFF, Code protection off
  2436     2007                     	org	8199
  2437     2007  3F39               	dw	16185

Data Sizes:
    Strings     0
    Constant    13
    Data        0
    BSS         46
    Persistent  0
    Stack       0

Auto Spaces:
    Space          Size  Autos    Used
    COMMON           14      8      10
    BANK0            80      8      52
    BANK1            80      0       0
    BANK3            96      0       0
    BANK2            96      0       0

Pointer List with Targets:

    None.

Critical Paths under _main in COMMON

    _main->_visualizar
    _mensajes->_visualizar

Critical Paths under _INT_TMR0 in COMMON

    None.

Critical Paths under _main in BANK0

    _main->_mensajes

Critical Paths under _INT_TMR0 in BANK0

    None.

Critical Paths under _main in BANK1

    None.

Critical Paths under _INT_TMR0 in BANK1

    None.

Critical Paths under _main in BANK3

    None.

Critical Paths under _INT_TMR0 in BANK3

    None.

Critical Paths under _main in BANK2

    None.

Critical Paths under _INT_TMR0 in BANK2

    None.

Call Graph Tables:

 ---------------------------------------------------------------------------------
 (Depth) Function   	        Calls       Base Space   Used Autos Params    Refs
 ---------------------------------------------------------------------------------
 (0) _main                                                 4     4      0    4368
                                              4 BANK0      4     4      0
                   _config_registros
                    _decremento_time
                    _incremento_time
                           _mensajes
                         _visualizar
 ---------------------------------------------------------------------------------
 (1) _mensajes                                             4     4      0    2184
                                              0 BANK0      4     4      0
                         _visualizar
 ---------------------------------------------------------------------------------
 (2) _visualizar                                           6     3      3    2184
                                              2 COMMON     6     3      3
 ---------------------------------------------------------------------------------
 (1) _incremento_time                                      0     0      0       0
 ---------------------------------------------------------------------------------
 (1) _decremento_time                                      0     0      0       0
 ---------------------------------------------------------------------------------
 (1) _config_registros                                     0     0      0       0
 ---------------------------------------------------------------------------------
 Estimated maximum stack depth 2
 ---------------------------------------------------------------------------------
 (Depth) Function   	        Calls       Base Space   Used Autos Params    Refs
 ---------------------------------------------------------------------------------
 (4) _INT_TMR0                                             2     2      0       0
                                              0 COMMON     2     2      0
 ---------------------------------------------------------------------------------
 Estimated maximum stack depth 4
 ---------------------------------------------------------------------------------

 Call Graph Graphs:

 _main (ROOT)
   _config_registros
   _decremento_time
   _incremento_time
   _mensajes
     _visualizar
   _visualizar

 _INT_TMR0 (ROOT)

 Address spaces:
Name               Size   Autos  Total    Cost      Usage
BITCOMMON            E      0       0       0        0.0%
EEDATA             100      0       0       0        0.0%
NULL                 0      0       0       0        0.0%
CODE                 0      0       0       0        0.0%
COMMON               E      8       A       1       71.4%
BITSFR0              0      0       0       1        0.0%
SFR0                 0      0       0       1        0.0%
BITSFR1              0      0       0       2        0.0%
SFR1                 0      0       0       2        0.0%
STACK                0      0       0       2        0.0%
ABS                  0      0      3E       3        0.0%
BITBANK0            50      0       0       4        0.0%
BITSFR3              0      0       0       4        0.0%
SFR3                 0      0       0       4        0.0%
BANK0               50      8      34       5       65.0%
BITSFR2              0      0       0       5        0.0%
SFR2                 0      0       0       5        0.0%
BITBANK1            50      0       0       6        0.0%
BANK1               50      0       0       7        0.0%
BITBANK3            60      0       0       8        0.0%
BANK3               60      0       0       9        0.0%
BITBANK2            60      0       0      10        0.0%
BANK2               60      0       0      11        0.0%
DATA                 0      0      3E      12        0.0%


Microchip Technology PIC Macro Assembler V2.46 build 20240104201356 
Symbol Table                                                                                   Mon May 05 21:09:55 2025

 __end_of_incremento_time 0426                         pc 0002                        l84 007B  
                      l93 00D0                        fsr 0004                       l126 0482  
                     l150 0425                       l134 03A6                       l144 03DF  
                     l129 0375                       l139 03D7                       l156 0459  
                     l182 034B                       u700 0450                       u701 044F  
                     u710 03F3                       u711 03F2                       u720 040A  
                     u721 0409                       u730 0421                       u570 0352  
                     u731 0420                       u715 03EF                       u571 0351  
                     u580 0383                       u725 0406                       u581 0382  
                     u590 03B4                       u735 041D                       u591 03B3  
                     u680 0430                       u681 042F                       u690 0442  
                     u691 0441                       fsr0 0004                       indf 0000  
                    l1100 047E                      l1040 0357                      l1050 037D  
                    l1042 0361                      l1060 039C                      l1052 0383  
                    l1036 034D                      l1070 03C3                      l1062 03A4  
                    l1054 0388                      l1046 036B                      l1038 0352  
                    l1080 0466                      l1064 03AE                      l1056 0392  
                    l1048 0373                      l1400 033D                      l1090 0476  
                    l1082 046A                      l1170 0442                      l1162 0426  
                    l1074 03CD                      l1066 03B4                      l1410 0029  
                    l1092 047A                      l1084 046D                      l1172 044C  
                    l1164 042C                      l1180 03F3                      l1076 03D5  
                    l1068 03B9                      l1500 0138                      l1420 004A  
                    l1412 002E                      l1094 047B                      l1086 0470  
                    l1078 045A                      l1174 0450                      l1166 0430  
                    l1190 0414                      l1182 03FB                      l1350 01E0  
                    l1510 0187                      l1502 0168                      l1430 005F  
                    l1422 004F                      l1414 0039                      l1406 001E  
                    l1096 047C                      l1088 0473                      l1168 043E  
                    l1192 0421                      l1184 03FD                      l1176 03E0  
                    l1360 020D                      l1352 01E2                      l1520 01A4  
                    l1512 018C                      l1504 0178                      l1440 0084  
                    l1432 0064                      l1424 0051                      l1416 003F  
                    l1408 0023                      l1098 047D                      l1186 040A  
                    l1178 03E6                      l1370 025B                      l1362 023D  
                    l1354 01EF                      l1346 01C9                      l1522 01AA  
                    l1530 01B9                      l1514 0191                      l1506 017D  
                    l1450 00A5                      l1442 008F                      l1434 0070  
                    l1426 0055                      l1418 0044                      l1188 0412  
                    l1380 02A0                      l1372 028B                      l1364 0248  
                    l1356 01F8                      l1348 01D8                      l1524 01B0  
                    l1516 0197                      l1508 0182                      l1460 00B9  
                    l1452 00A7                      l1444 0095                      l1436 0076  
                    l1428 0059                      l1390 02EE                      l1382 02AB  
                    l1374 028F                      l1366 024E                      l1358 0202  
                    l1526 01B2                      l1518 019C                      l1470 00E5  
                    l1462 00C5                      l1454 00AB                      l1446 009A  
                    l1438 007F                      l1552 0332                      l1392 02F9  
                    l1384 02DB                      l1376 0298                      l1368 0250  
                    l1528 01B3                      l1480 010A                      l1472 00EE  
                    l1464 00CB                      l1456 00AF                      l1448 00A0  
                    l1386 02E6                      l1378 029C                      l1490 0121  
                    l1482 010F                      l1474 00FA                      l1466 00D4  
                    l1458 00B4                      l1388 02EC                      l1492 0127  
                    l1484 0114                      l1468 00DF                      l1476 0100  
                    l1398 032A                      l1494 012A                      l1486 0119  
                    l1478 0105                      l1496 012F                      l1488 011C  
                    l1498 0133                      u1200 0329                      u1201 0328  
                    u1210 0029                      u1203 0325                      u1131 021E  
                    u1211 0028                      u1140 023D                      u1132 021F  
                    u1300 0084                      u1220 002E                      u1141 023C  
                    u1133 0224                      u1301 0083                      u1221 002D  
                    u1134 0225                      u1310 0095                      u1230 003F  
                    u1151 026C                      u1143 0239                      u1135 022A  
                    u1311 0094                      u1231 003E                      u1160 028B  
                    u1152 026D                      u1136 022B                      u1400 00EC  
                    u1320 009A                      u1240 0044                      u1161 028A  
                    u1153 0272                      u1321 0099                      u1241 0043  
                    u1154 0273                      u1410 0100                      u1330 00A5  
                    u1250 004F                      u1171 02BC                      u1163 0287  
                    u1155 0278                      u1411 00FF                      u1331 00A4  
                    u1251 004E                      u1180 02DB                      u1172 02BD  
                    u1156 0279                      u1420 0105                      u1340 00B4  
                    u1260 005F                      u1181 02DA                      u1173 02C2  
                    u1501 0149                      u1421 0104                      u1341 00B3  
                    u1261 005E                      u1174 02C3                      u1510 0168  
                    u1502 014A                      u1430 010A                      u1350 00CB  
                    u1270 0076                      u1191 030A                      u1183 02D7  
                    u1175 02C8                      u1511 0167                      u1503 014F  
                    u1431 0109                      u1351 00CA                      u1271 0075  
                    u1192 030B                      u1176 02C9                      u1520 0182  
                    u1504 0150                      u1440 0114                      u1360 00D0  
                    u1280 007B                      u1193 0310                      u1521 0181  
                    u1513 0164                      u1505 0155                      u1441 0113  
                    u1361 00CF                      u1281 007A                      u1194 0311  
                    u1530 0187                      u1506 0156                      u1450 0119  
                    u1370 00D4                      u1290 007F                      u1195 0316  
                    u1531 0186                      u1451 0118                      u1371 00D3  
                    u1291 007E                      u1196 0317                      u1540 0191  
                    u1460 0121                      u1380 00E5                      u1541 0190  
                    u1461 0120                      u1381 00E4                      u1550 0197  
                    u1470 0127                      u1390 00EB                      u1551 0196  
                    u1471 0126                      u1391 00E9                      u1607 008A  
                    u1560 01A4                      u1480 012F                      u1561 01A3  
                    u1481 012E                      u1617 00DA                      u1570 01AA  
                    u1490 0138                      u1627 0379                      u1571 01A9  
                    u1491 0137                      u1580 01B0                      u1637 03AA  
                    u1581 01AF                      u1647 03DB                      u1597 0034  
                    i1l78 049A                      _TMR0 0001                      _dece 0046  
                    _cent 0044                      _cont 0042                      _main 001E  
                    _unid 0048                      btemp 007E                      start 000C  
       ??_decremento_time 0072                     ?_main 0070          __end_of_INT_TMR0 04A1  
                   _PORTA 0005                     _PORTB 0006                     _PORTD 0008  
                   _PORTE 0009                     _TRISA 0085                     _TRISB 0086  
                   _TRISD 0088                     _TRISE 0089                     u74_20 0487  
                   u74_21 0486           __end_of_display 04B1                     _state 0079  
                   pclath 000A                     status 0003                     wtemp0 007E  
       visualizar@centena 0074           __initialization 000F          ?_incremento_time 0070  
            __end_of_main 01C9                    ??_main 0050                    i1l1194 0483  
                  i1l1196 0487                    i1l1198 0488          __end_of_mensajes 034C  
                  saved_w 007E   __end_of__initialization 001A                 ?_INT_TMR0 0070  
          __pcstackCOMMON 0070            _OPTION_REGbits 0081                __pbssBANK0 0020  
         _decremento_time 0426                ??_INT_TMR0 0070                __pmaintext 001E  
              __pintentry 0004                __stringtab 04A1                 ?_mensajes 0070  
         _mensaje_display 004A                _mensaje_on 04B1                   __ptext1 01C9  
                 __ptext2 034C                   __ptext3 03E0                   __ptext4 0426  
                 __ptext5 045A                   __ptext6 0483                   _display 04A7  
 __end_of_decremento_time 045A                _on_display 004B          _config_registros 045A  
                 clrloop0 04B5      end_of_initialization 001A              _anterior_50w 002C  
            _anterior_35w 0024         _mens_anterior_50w 0028         _mens_anterior_35w 0020  
              ??_mensajes 004C                 _PORTBbits 0006                 _PORTEbits 0009  
              _visualizar 034C       start_initialization 000F          ?_decremento_time 0070  
        visualizar@decena 0073          visualizar@unidad 0072               __pbssCOMMON 0078  
               ___latbits 0002             __pcstackBANK0 004C         ??_incremento_time 0072  
             ?_visualizar 0072  __end_of_config_registros 0483                 __pstrings 04A1  
           visualizar@VER 0077         interrupt_function 0004          mensajes@guarda_c 003C  
        mensajes@guarda_d 003E              _milisegundos 0038          mensajes@guarda_u 0040  
               clear_ram0 04B4                 _seleccion 0078                  _INT_TMR0 0483  
             __stringbase 04A6        __end_of__stringtab 04A7                  _anterior 0034  
                _mens_off 0030                  _mensajes 01C9        __end_of_mensaje_on 04B4  
         _incremento_time 03E0                _INTCONbits 000B                  intlevel1 0000  
            ??_visualizar 0075                 stringcode 04A1         ?_config_registros 0070  
      ??_config_registros 0072                  stringdir 04A1                  stringtab 04A1  
      __end_of_visualizar 03E0  
