

Microchip MPLAB XC8 Assembler V2.46 build 20240104201356 
                                                                                               Tue May 13 23:10:52 2025

Microchip MPLAB XC8 C Compiler v2.46 (Free license) build 20240104201356 Og1 
     1                           	processor	16F877A
     2                           	pagewidth 120
     3                           	opt	flic
     4                           	psect	idataBANK0,global,class=CODE,delta=2,noexec
     5                           	psect	strings,global,class=STRING,delta=2,noexec
     6                           	psect	cinit,global,class=CODE,merge=1,delta=2
     7                           	psect	bssBANK0,global,class=BANK0,space=1,delta=1,noexec
     8                           	psect	dataBANK0,global,class=BANK0,space=1,delta=1,noexec
     9                           	psect	inittext,global,class=CODE,delta=2
    10                           	psect	clrtext,global,class=CODE,delta=2
    11                           	psect	cstackCOMMON,global,class=COMMON,space=1,delta=1,noexec
    12                           	psect	cstackBANK0,global,class=BANK0,space=1,delta=1,noexec
    13                           	psect	maintext,global,class=CODE,split=1,delta=2
    14                           	psect	text1,local,class=CODE,merge=1,delta=2
    15                           	psect	text2,local,class=CODE,merge=1,delta=2
    16                           	psect	text3,local,class=CODE,merge=1,delta=2
    17                           	psect	text4,local,class=CODE,merge=1,delta=2
    18                           	psect	text5,local,class=CODE,merge=1,delta=2
    19                           	psect	text6,local,class=CODE,merge=1,delta=2
    20                           	psect	text7,local,class=CODE,merge=1,delta=2
    21                           	psect	text8,local,class=CODE,merge=1,delta=2
    22                           	psect	text9,local,class=CODE,merge=1,delta=2
    23                           	psect	text10,local,class=CODE,merge=1,delta=2
    24                           	psect	text11,local,class=CODE,merge=1,delta=2
    25                           	psect	text12,local,class=CODE,merge=1,delta=2,group=1
    26                           	psect	text13,local,class=CODE,merge=1,delta=2
    27                           	psect	text14,local,class=CODE,merge=1,delta=2
    28                           	psect	text15,local,class=CODE,merge=1,delta=2
    29                           	psect	text16,local,class=CODE,merge=1,delta=2
    30                           	psect	text17,local,class=CODE,merge=1,delta=2
    31                           	psect	intentry,global,class=CODE,delta=2
    32                           	psect	config,global,abs,ovrld,class=CONFIG,space=4,delta=2,noexec
    33                           	dabs	1,0x7E,2
    34     0000                     
    35                           ; Generated 12/10/2023 GMT
    36                           ; 
    37                           ; Copyright © 2023, Microchip Technology Inc. and its subsidiaries ("Microchip")
    38                           ; All rights reserved.
    39                           ; 
    40                           ; This software is developed by Microchip Technology Inc. and its subsidiaries ("Microch
      +                          ip").
    41                           ; 
    42                           ; Redistribution and use in source and binary forms, with or without modification, are
    43                           ; permitted provided that the following conditions are met:
    44                           ; 
    45                           ;     1. Redistributions of source code must retain the above copyright notice, this lis
      +                          t of
    46                           ;        conditions and the following disclaimer.
    47                           ; 
    48                           ;     2. Redistributions in binary form must reproduce the above copyright notice, this 
      +                          list
    49                           ;        of conditions and the following disclaimer in the documentation and/or other
    50                           ;        materials provided with the distribution. Publication is not required when
    51                           ;        this file is used in an embedded application.
    52                           ; 
    53                           ;     3. Microchip's name may not be used to endorse or promote products derived from th
      +                          is
    54                           ;        software without specific prior written permission.
    55                           ; 
    56                           ; THIS SOFTWARE IS PROVIDED BY MICROCHIP "AS IS" AND ANY EXPRESS OR IMPLIED WARRANTIES,
    57                           ; INCLUDING, BUT NOT LIMITED TO, THE IMPLIED WARRANTIES OF MERCHANTABILITY AND FITNESS F
      +                          OR
    58                           ; PURPOSE ARE DISCLAIMED.  IN NO EVENT SHALL MICROCHIP BE LIABLE FOR ANY DIRECT, INDIREC
      +                          T,
    59                           ; INCIDENTAL, SPECIAL, EXEMPLARY, OR CONSEQUENTIAL DAMAGES (INCLUDING BUT NOT LIMITED TO
    60                           ; PROCUREMENT OF SUBSTITUTE GOODS OR SERVICES; LOSS OF USE, DATA OR PROFITS; OR BUSINESS
    61                           ; INTERRUPTION) HOWSOEVER CAUSED AND ON ANY THEORY OF LIABILITY, WHETHER IN CONTRACT, ST
      +                          RICT
    62                           ; LIABILITY, OR TORT (INCLUDING NEGLIGENCE OR OTHERWISE) ARISING IN ANY WAY OUT OF THE U
      +                          SE OF
    63                           ; THIS SOFTWARE, EVEN IF ADVISED OF THE POSSIBILITY OF SUCH DAMAGE.
    64                           ; 
    65                           ; 
    66                           ; Code-generator required, PIC16F877A Definitions
    67                           ; 
    68                           ; SFR Addresses
    69     0000                     	;# 
    70     0001                     	;# 
    71     0002                     	;# 
    72     0003                     	;# 
    73     0004                     	;# 
    74     0005                     	;# 
    75     0006                     	;# 
    76     0007                     	;# 
    77     0008                     	;# 
    78     0009                     	;# 
    79     000A                     	;# 
    80     000B                     	;# 
    81     000C                     	;# 
    82     000D                     	;# 
    83     000E                     	;# 
    84     000E                     	;# 
    85     000F                     	;# 
    86     0010                     	;# 
    87     0011                     	;# 
    88     0012                     	;# 
    89     0013                     	;# 
    90     0014                     	;# 
    91     0015                     	;# 
    92     0015                     	;# 
    93     0016                     	;# 
    94     0017                     	;# 
    95     0018                     	;# 
    96     0019                     	;# 
    97     001A                     	;# 
    98     001B                     	;# 
    99     001B                     	;# 
   100     001C                     	;# 
   101     001D                     	;# 
   102     001E                     	;# 
   103     001F                     	;# 
   104     0081                     	;# 
   105     0085                     	;# 
   106     0086                     	;# 
   107     0087                     	;# 
   108     0088                     	;# 
   109     0089                     	;# 
   110     008C                     	;# 
   111     008D                     	;# 
   112     008E                     	;# 
   113     0091                     	;# 
   114     0092                     	;# 
   115     0093                     	;# 
   116     0094                     	;# 
   117     0098                     	;# 
   118     0099                     	;# 
   119     009C                     	;# 
   120     009D                     	;# 
   121     009E                     	;# 
   122     009F                     	;# 
   123     010C                     	;# 
   124     010D                     	;# 
   125     010E                     	;# 
   126     010F                     	;# 
   127     018C                     	;# 
   128     018D                     	;# 
   129     0000                     	;# 
   130     0001                     	;# 
   131     0002                     	;# 
   132     0003                     	;# 
   133     0004                     	;# 
   134     0005                     	;# 
   135     0006                     	;# 
   136     0007                     	;# 
   137     0008                     	;# 
   138     0009                     	;# 
   139     000A                     	;# 
   140     000B                     	;# 
   141     000C                     	;# 
   142     000D                     	;# 
   143     000E                     	;# 
   144     000E                     	;# 
   145     000F                     	;# 
   146     0010                     	;# 
   147     0011                     	;# 
   148     0012                     	;# 
   149     0013                     	;# 
   150     0014                     	;# 
   151     0015                     	;# 
   152     0015                     	;# 
   153     0016                     	;# 
   154     0017                     	;# 
   155     0018                     	;# 
   156     0019                     	;# 
   157     001A                     	;# 
   158     001B                     	;# 
   159     001B                     	;# 
   160     001C                     	;# 
   161     001D                     	;# 
   162     001E                     	;# 
   163     001F                     	;# 
   164     0081                     	;# 
   165     0085                     	;# 
   166     0086                     	;# 
   167     0087                     	;# 
   168     0088                     	;# 
   169     0089                     	;# 
   170     008C                     	;# 
   171     008D                     	;# 
   172     008E                     	;# 
   173     0091                     	;# 
   174     0092                     	;# 
   175     0093                     	;# 
   176     0094                     	;# 
   177     0098                     	;# 
   178     0099                     	;# 
   179     009C                     	;# 
   180     009D                     	;# 
   181     009E                     	;# 
   182     009F                     	;# 
   183     010C                     	;# 
   184     010D                     	;# 
   185     010E                     	;# 
   186     010F                     	;# 
   187     018C                     	;# 
   188     018D                     	;# 
   189                           
   190                           	psect	idataBANK0
   191     061D                     __pidataBANK0:
   192                           
   193                           ;initializer for _display_buffer
   194     061D  3418               	retlw	24
   195     061E  340F               	retlw	15
   196     061F  340F               	retlw	15
   197                           
   198                           ;initializer for efecto_titilar@mostrar
   199     0620  3401               	retlw	1
   200                           
   201                           ;initializer for _centenas
   202     0621  3401               	retlw	1
   203                           
   204                           ;initializer for _decenas
   205     0622  3408               	retlw	8
   206                           
   207                           ;initializer for _temporizador_activo
   208     0623  3401               	retlw	1
   209                           
   210                           	psect	strings
   211     0479                     __pstrings:
   212     0479                     stringtab:
   213     0479                     __stringtab:
   214     0479                     stringcode:	
   215                           ;	String table - string pointers are 1 byte each
   216                           
   217     0479                     stringdir:
   218     0479  3004               	movlw	high stringdir
   219     047A  008A               	movwf	10
   220     047B  0804               	movf	4,w
   221     047C  0A84               	incf	4,f
   222     047D  0782               	addwf	2,f
   223     047E                     __stringbase:
   224     047E  3400               	retlw	0
   225     047F                     __end_of__stringtab:
   226     047F                     _DATOS:
   227     047F  34C0               	retlw	192
   228     0480  34F9               	retlw	249
   229     0481  34A4               	retlw	164
   230     0482  34B0               	retlw	176
   231     0483  3499               	retlw	153
   232     0484  3492               	retlw	146
   233     0485  3482               	retlw	130
   234     0486  34F8               	retlw	248
   235     0487  3480               	retlw	128
   236     0488  3490               	retlw	144
   237     0489  3488               	retlw	136
   238     048A  3483               	retlw	131
   239     048B  34C6               	retlw	198
   240     048C  34A1               	retlw	161
   241     048D  3486               	retlw	134
   242     048E  348E               	retlw	142
   243     048F  34C2               	retlw	194
   244     0490  3489               	retlw	137
   245     0491  34CF               	retlw	207
   246     0492  34E1               	retlw	225
   247     0493  3489               	retlw	137
   248     0494  34C7               	retlw	199
   249     0495  34C8               	retlw	200
   250     0496  34AB               	retlw	171
   251     0497  34C0               	retlw	192
   252     0498  348C               	retlw	140
   253     0499  3498               	retlw	152
   254     049A  34AF               	retlw	175
   255     049B  3492               	retlw	146
   256     049C  3487               	retlw	135
   257     049D  34C1               	retlw	193
   258     049E  34C1               	retlw	193
   259     049F  34D5               	retlw	213
   260     04A0  3489               	retlw	137
   261     04A1  3491               	retlw	145
   262     04A2  34A4               	retlw	164
   263     04A3  34BF               	retlw	191
   264     04A4  347F               	retlw	127
   265     04A5  349C               	retlw	156
   266     04A6  34FF               	retlw	255
   267     04A7  34FE               	retlw	254
   268     04A8  34F7               	retlw	247
   269     04A9  34F9               	retlw	249
   270     04AA  34E7               	retlw	231
   271     04AB  34FC               	retlw	252
   272     04AC  34DE               	retlw	222
   273     04AD  34F3               	retlw	243
   274     04AE  34F6               	retlw	246
   275     04AF                     __end_of_DATOS:
   276     04AF                     verificar_fin_temporizador@MS_CLEAR:
   277     04AF  3427               	retlw	39
   278     04B0  3427               	retlw	39
   279     04B1  3427               	retlw	39
   280     04B2                     __end_ofverificar_fin_temporizador@MS_CLEAR:
   281     04B2                     verificar_fin_temporizador@MS_OFF:
   282     04B2  3418               	retlw	24
   283     04B3  340F               	retlw	15
   284     04B4  340F               	retlw	15
   285     04B5                     __end_ofverificar_fin_temporizador@MS_OFF:
   286     04B5                     efecto_titilar@apagado:
   287     04B5  3427               	retlw	39
   288     04B6  3427               	retlw	39
   289     04B7  3427               	retlw	39
   290     04B8                     __end_ofefecto_titilar@apagado:
   291     04B8                     diferentes_mensajes@ms_inicio_proceso:
   292     04B8  3427               	retlw	39
   293     04B9  3418               	retlw	24
   294     04BA  3417               	retlw	23
   295     04BB                     __end_ofdiferentes_mensajes@ms_inicio_proceso:
   296     04BB                     diferentes_mensajes@ms_para_50w:
   297     04BB  3419               	retlw	25
   298     04BC  3405               	retlw	5
   299     04BD  3400               	retlw	0
   300     04BE                     __end_ofdiferentes_mensajes@ms_para_50w:
   301     04BE                     diferentes_mensajes@ms_para_35w:
   302     04BE  3419               	retlw	25
   303     04BF  3403               	retlw	3
   304     04C0  3405               	retlw	5
   305     04C1                     __end_ofdiferentes_mensajes@ms_para_35w:
   306     04C1                     diferentes_mensajes@sec5:
   307     04C1  3429               	retlw	41
   308     04C2  342F               	retlw	47
   309     04C3  3428               	retlw	40
   310     04C4                     __end_ofdiferentes_mensajes@sec5:
   311     04C4                     diferentes_mensajes@sec4:
   312     04C4  342B               	retlw	43
   313     04C5  3427               	retlw	39
   314     04C6  342C               	retlw	44
   315     04C7                     __end_ofdiferentes_mensajes@sec4:
   316     04C7                     diferentes_mensajes@sec3:
   317     04C7  3412               	retlw	18
   318     04C8  3427               	retlw	39
   319     04C9  342A               	retlw	42
   320     04CA                     __end_ofdiferentes_mensajes@sec3:
   321     04CA                     diferentes_mensajes@sec2:
   322     04CA  342D               	retlw	45
   323     04CB  3427               	retlw	39
   324     04CC  342E               	retlw	46
   325     04CD                     __end_ofdiferentes_mensajes@sec2:
   326     04CD                     diferentes_mensajes@sec1:
   327     04CD  3428               	retlw	40
   328     04CE  342F               	retlw	47
   329     04CF  3429               	retlw	41
   330     04D0                     __end_ofdiferentes_mensajes@sec1:
   331     0007                     _PORTCbits	set	7
   332     0006                     _PORTBbits	set	6
   333     0001                     _TMR0	set	1
   334     000B                     _INTCONbits	set	11
   335     0007                     _PORTC	set	7
   336     0006                     _PORTB	set	6
   337     0008                     _PORTD	set	8
   338     0005                     _PORTA	set	5
   339     0086                     _TRISB	set	134
   340     0081                     _OPTION_REGbits	set	129
   341     0087                     _TRISC	set	135
   342     0088                     _TRISD	set	136
   343     0085                     _TRISA	set	133
   344                           
   345                           	psect	cinit
   346     000F                     start_initialization:	
   347                           ; #config settings
   348                           
   349     000F                     __initialization:
   350                           
   351                           ; Initialize objects allocated to BANK0
   352     000F  1383               	bcf	3,7	;select IRP bank0
   353     0010  3061               	movlw	low (__pdataBANK0+7)
   354     0011  00FD               	movwf	btemp+-1
   355     0012  3006               	movlw	high __pidataBANK0
   356     0013  00FE               	movwf	btemp
   357     0014  301D               	movlw	low __pidataBANK0
   358     0015  00FF               	movwf	btemp+1
   359     0016  305A               	movlw	low __pdataBANK0
   360     0017  0084               	movwf	4
   361     0018  120A  118A  25CD  120A  118A  	fcall	init_ram0
   362                           
   363                           ; Clear objects allocated to BANK0
   364     001D  303E               	movlw	low __pbssBANK0
   365     001E  0084               	movwf	4
   366     001F  305A               	movlw	low (__pbssBANK0+28)
   367     0020  120A  118A  2615  120A  118A  	fcall	clear_ram0
   368     0025                     end_of_initialization:	
   369                           ;End of C runtime variable initialization code
   370                           
   371     0025                     __end_of__initialization:
   372     0025  0183               	clrf	3
   373     0026  120A  118A  2D74   	ljmp	_main	;jump to C main() function
   374                           
   375                           	psect	bssBANK0
   376     003E                     __pbssBANK0:
   377     003E                     actualizar_temporizador@last_second:
   378     003E                     	ds	4
   379     0042                     efecto_titilar@last_change:
   380     0042                     	ds	4
   381     0046                     diferentes_mensajes@last_change:
   382     0046                     	ds	4
   383     004A                     visualizar_display@last_mux:
   384     004A                     	ds	4
   385     004E                     _milisegundos:
   386     004E                     	ds	4
   387     0052                     diferentes_mensajes@mostrar_ms:
   388     0052                     	ds	1
   389     0053                     _ms_state:
   390     0053                     	ds	1
   391     0054                     _modo_proceso:
   392     0054                     	ds	1
   393     0055                     _ms_tiempo:
   394     0055                     	ds	1
   395     0056                     _unidades:
   396     0056                     	ds	1
   397     0057                     _cont:
   398     0057                     	ds	1
   399     0058                     _on_off:
   400     0058                     	ds	1
   401     0059                     _display_state:
   402     0059                     	ds	1
   403                           
   404                           	psect	dataBANK0
   405     005A                     __pdataBANK0:
   406     005A                     _display_buffer:
   407     005A                     	ds	3
   408     005D                     efecto_titilar@mostrar:
   409     005D                     	ds	1
   410     005E                     _centenas:
   411     005E                     	ds	1
   412     005F                     _decenas:
   413     005F                     	ds	1
   414     0060                     _temporizador_activo:
   415     0060                     	ds	1
   416                           
   417                           	psect	inittext
   418     05C9                     init_fetch0:	
   419                           ;	Called with low address in FSR and high address in W
   420                           
   421     05C9  087E               	movf	btemp,w
   422     05CA  008A               	movwf	10
   423     05CB  087F               	movf	btemp+1,w
   424     05CC  0082               	movwf	2
   425     05CD                     init_ram0:	
   426                           ;Called with:
   427                           ;	high address of idata address in btemp 
   428                           ;	low address of idata address in btemp+1 
   429                           ;	low address of data in FSR
   430                           ;	high address + 1 of data in btemp-1
   431                           
   432     05CD  120A  118A  25C9  120A  118A  	fcall	init_fetch0
   433     05D2  0080               	movwf	0
   434     05D3  0A84               	incf	4,f
   435     05D4  0804               	movf	4,w
   436     05D5  067D               	xorwf	btemp+-1,w
   437     05D6  1903               	btfsc	3,2
   438     05D7  3400               	retlw	0
   439     05D8  0AFF               	incf	btemp+1,f
   440     05D9  1903               	btfsc	3,2
   441     05DA  0AFE               	incf	btemp,f
   442     05DB  2DCD               	goto	init_ram0
   443                           
   444                           	psect	clrtext
   445     0615                     clear_ram0:	
   446                           ;	Called with FSR containing the base address, and
   447                           ;	W with the last address+1
   448                           
   449     0615  0064               	clrwdt	;clear the watchdog before getting into this loop
   450     0616                     clrloop0:
   451     0616  0180               	clrf	0	;clear RAM location pointed to by FSR
   452     0617  0A84               	incf	4,f	;increment pointer
   453     0618  0604               	xorwf	4,w	;XOR with final address
   454     0619  1903               	btfsc	3,2	;have we reached the end yet?
   455     061A  3400               	retlw	0	;all done for this memory range, return
   456     061B  0604               	xorwf	4,w	;XOR again to restore value
   457     061C  2E16               	goto	clrloop0	;do the next byte
   458                           
   459                           	psect	cstackCOMMON
   460     0070                     __pcstackCOMMON:
   461     0070                     ?_convertir_tiempo_a_display:
   462     0070                     ?_incremento_temporizador:	
   463                           ; 1 bytes @ 0x0
   464                           
   465     0070                     ?_decremento_temporizador:	
   466                           ; 1 bytes @ 0x0
   467                           
   468     0070                     ?_actualizar_temporizador:	
   469                           ; 1 bytes @ 0x0
   470                           
   471     0070                     ?_verificar_fin_temporizador:	
   472                           ; 1 bytes @ 0x0
   473                           
   474     0070                     ?_condiciones_iniciales:	
   475                           ; 1 bytes @ 0x0
   476                           
   477     0070                     ?_configurar_hardware:	
   478                           ; 1 bytes @ 0x0
   479                           
   480     0070                     ?_configurar_tmr0:	
   481                           ; 1 bytes @ 0x0
   482                           
   483     0070                     ?_INT_TMR0:	
   484                           ; 1 bytes @ 0x0
   485                           
   486     0070                     ??_INT_TMR0:	
   487                           ; 1 bytes @ 0x0
   488                           
   489     0070                     ?_visualizar_display:	
   490                           ; 1 bytes @ 0x0
   491                           
   492     0070                     ?_diferentes_mensajes:	
   493                           ; 1 bytes @ 0x0
   494                           
   495     0070                     ?_botones:	
   496                           ; 1 bytes @ 0x0
   497                           
   498     0070                     ?_proceso_on:	
   499                           ; 1 bytes @ 0x0
   500                           
   501     0070                     ?_main:	
   502                           ; 1 bytes @ 0x0
   503                           
   504                           
   505                           ; 1 bytes @ 0x0
   506     0070                     	ds	2
   507     0072                     ??_convertir_tiempo_a_display:
   508     0072                     ??_incremento_temporizador:	
   509                           ; 1 bytes @ 0x2
   510                           
   511     0072                     ??_decremento_temporizador:	
   512                           ; 1 bytes @ 0x2
   513                           
   514     0072                     ??_condiciones_iniciales:	
   515                           ; 1 bytes @ 0x2
   516                           
   517     0072                     ??_configurar_hardware:	
   518                           ; 1 bytes @ 0x2
   519                           
   520     0072                     ??_configurar_tmr0:	
   521                           ; 1 bytes @ 0x2
   522                           
   523     0072                     ?_mostrar_mensajes:	
   524                           ; 1 bytes @ 0x2
   525                           
   526     0072                     ?___awmod:	
   527                           ; 1 bytes @ 0x2
   528                           
   529     0072                     ?_millis:	
   530                           ; 2 bytes @ 0x2
   531                           
   532     0072                     mostrar_mensajes@longitud:	
   533                           ; 4 bytes @ 0x2
   534                           
   535     0072                     ___awmod@divisor:	
   536                           ; 1 bytes @ 0x2
   537                           
   538                           
   539                           ; 2 bytes @ 0x2
   540     0072                     	ds	1
   541     0073                     ??_mostrar_mensajes:
   542                           
   543                           ; 1 bytes @ 0x3
   544     0073                     	ds	1
   545     0074                     ___awmod@dividend:
   546                           
   547                           ; 2 bytes @ 0x4
   548     0074                     	ds	1
   549     0075                     _mostrar_mensajes$248:
   550                           
   551                           ; 2 bytes @ 0x5
   552     0075                     	ds	1
   553     0076                     ??_millis:
   554     0076                     ??___awmod:	
   555                           ; 1 bytes @ 0x6
   556                           
   557     0076                     ___awmod@counter:	
   558                           ; 1 bytes @ 0x6
   559                           
   560     0076                     millis@m:	
   561                           ; 1 bytes @ 0x6
   562                           
   563                           
   564                           ; 4 bytes @ 0x6
   565     0076                     	ds	1
   566     0077                     mostrar_mensajes@mensaje:
   567     0077                     ___awmod@sign:	
   568                           ; 1 bytes @ 0x7
   569                           
   570                           
   571                           ; 1 bytes @ 0x7
   572     0077                     	ds	1
   573     0078                     mostrar_mensajes@i:
   574                           
   575                           ; 1 bytes @ 0x8
   576     0078                     	ds	2
   577     007A                     ??_botones:
   578     007A                     ??_proceso_on:	
   579                           ; 1 bytes @ 0xA
   580                           
   581                           
   582                           ; 1 bytes @ 0xA
   583     007A                     	ds	2
   584     007C                     ??_main:
   585                           
   586                           	psect	cstackBANK0
   587     0020                     __pcstackBANK0:	
   588                           ; 1 bytes @ 0xC
   589                           
   590     0020                     ?_efecto_titilar:
   591     0020                     ??_visualizar_display:	
   592                           ; 1 bytes @ 0x0
   593                           
   594     0020                     efecto_titilar@longitud:	
   595                           ; 1 bytes @ 0x0
   596                           
   597                           
   598                           ; 1 bytes @ 0x0
   599     0020                     	ds	1
   600     0021                     efecto_titilar@tiempo:
   601                           
   602                           ; 4 bytes @ 0x1
   603     0021                     	ds	3
   604     0024                     visualizar_display@now:
   605                           
   606                           ; 4 bytes @ 0x4
   607     0024                     	ds	1
   608     0025                     ??_efecto_titilar:
   609                           
   610                           ; 1 bytes @ 0x5
   611     0025                     	ds	3
   612     0028                     ??_verificar_fin_temporizador:
   613                           
   614                           ; 1 bytes @ 0x8
   615     0028                     	ds	1
   616     0029                     efecto_titilar@now:
   617                           
   618                           ; 4 bytes @ 0x9
   619     0029                     	ds	3
   620     002C                     verificar_fin_temporizador@last_change:
   621                           
   622                           ; 4 bytes @ 0xC
   623     002C                     	ds	1
   624     002D                     efecto_titilar@mensaje:
   625                           
   626                           ; 1 bytes @ 0xD
   627     002D                     	ds	1
   628     002E                     ??_diferentes_mensajes:
   629                           
   630                           ; 1 bytes @ 0xE
   631     002E                     	ds	2
   632     0030                     _verificar_fin_temporizador$300:
   633                           
   634                           ; 1 bytes @ 0x10
   635     0030                     	ds	1
   636     0031                     verificar_fin_temporizador@now:
   637                           
   638                           ; 4 bytes @ 0x11
   639     0031                     	ds	1
   640     0032                     diferentes_mensajes@now:
   641                           
   642                           ; 4 bytes @ 0x12
   643     0032                     	ds	3
   644     0035                     verificar_fin_temporizador@mostrar_dos_ms:
   645                           
   646                           ; 1 bytes @ 0x15
   647     0035                     	ds	1
   648     0036                     ??_actualizar_temporizador:
   649                           
   650                           ; 1 bytes @ 0x16
   651     0036                     	ds	4
   652     003A                     actualizar_temporizador@now:
   653                           
   654                           ; 4 bytes @ 0x1A
   655     003A                     	ds	4
   656                           
   657                           	psect	maintext
   658     0574                     __pmaintext:	
   659 ;;
   660 ;;Main: autosize = 0, tempsize = 0, incstack = 0, save=0
   661 ;;
   662 ;; *************** function _main *****************
   663 ;; Defined at:
   664 ;;		line 512 in file "Codigo_fuente.c"
   665 ;; Parameters:    Size  Location     Type
   666 ;;		None
   667 ;; Auto vars:     Size  Location     Type
   668 ;;		None
   669 ;; Return value:  Size  Location     Type
   670 ;;                  1    wreg      void 
   671 ;; Registers used:
   672 ;;		wreg, fsr0l, fsr0h, status,2, status,0, btemp+1, pclath, cstack
   673 ;; Tracked objects:
   674 ;;		On entry : B00/0
   675 ;;		On exit  : 0/0
   676 ;;		Unchanged: 0/0
   677 ;; Data sizes:     COMMON   BANK0   BANK1   BANK3   BANK2
   678 ;;      Params:         0       0       0       0       0
   679 ;;      Locals:         0       0       0       0       0
   680 ;;      Temps:          0       0       0       0       0
   681 ;;      Totals:         0       0       0       0       0
   682 ;;Total ram usage:        0 bytes
   683 ;; Hardware stack levels required when called: 6
   684 ;; This function calls:
   685 ;;		_botones
   686 ;;		_configurar_hardware
   687 ;;		_configurar_tmr0
   688 ;;		_diferentes_mensajes
   689 ;;		_proceso_on
   690 ;;		_visualizar_display
   691 ;; This function is called by:
   692 ;;		Startup code after reset
   693 ;; This function uses a non-reentrant model
   694 ;;
   695                           
   696     0574                     _main:	
   697                           ;psect for function _main
   698                           
   699     0574                     l1624:	
   700                           ;incstack = 0
   701                           ; Regs used in _main: [wreg-fsr0h+status,2+status,0+btemp+1+pclath+cstack]
   702                           
   703                           
   704                           ;Codigo_fuente.c: 513:     configurar_hardware();
   705     0574  120A  118A  25DC  120A  118A  	fcall	_configurar_hardware
   706                           
   707                           ;Codigo_fuente.c: 514:     configurar_tmr0();
   708     0579  120A  118A  25FD  120A  118A  	fcall	_configurar_tmr0
   709     057E                     l1626:
   710                           
   711                           ;Codigo_fuente.c: 516:         visualizar_display();
   712     057E  120A  118A  22CA  120A  118A  	fcall	_visualizar_display
   713     0583                     l1628:
   714                           
   715                           ;Codigo_fuente.c: 517:         diferentes_mensajes();
   716     0583  120A  118A  2029  120A  118A  	fcall	_diferentes_mensajes
   717     0588                     l1630:
   718                           
   719                           ;Codigo_fuente.c: 518:         botones();
   720     0588  120A  118A  216F  120A  118A  	fcall	_botones
   721     058D                     l1632:
   722                           
   723                           ;Codigo_fuente.c: 519:         proceso_on();
   724     058D  120A  118A  254E  120A  118A  	fcall	_proceso_on
   725     0592  2D7E               	goto	l1626
   726     0593  120A  118A  280C   	ljmp	start
   727     0596                     __end_of_main:
   728                           
   729                           	psect	text1
   730     054E                     __ptext1:	
   731 ;; *************** function _proceso_on *****************
   732 ;; Defined at:
   733 ;;		line 368 in file "Codigo_fuente.c"
   734 ;; Parameters:    Size  Location     Type
   735 ;;		None
   736 ;; Auto vars:     Size  Location     Type
   737 ;;		None
   738 ;; Return value:  Size  Location     Type
   739 ;;                  1    wreg      void 
   740 ;; Registers used:
   741 ;;		wreg, fsr0l, fsr0h, status,2, status,0, btemp+1, pclath, cstack
   742 ;; Tracked objects:
   743 ;;		On entry : 0/0
   744 ;;		On exit  : 0/0
   745 ;;		Unchanged: 0/0
   746 ;; Data sizes:     COMMON   BANK0   BANK1   BANK3   BANK2
   747 ;;      Params:         0       0       0       0       0
   748 ;;      Locals:         0       0       0       0       0
   749 ;;      Temps:          2       0       0       0       0
   750 ;;      Totals:         2       0       0       0       0
   751 ;;Total ram usage:        2 bytes
   752 ;; Hardware stack levels used: 1
   753 ;; Hardware stack levels required when called: 5
   754 ;; This function calls:
   755 ;;		_actualizar_temporizador
   756 ;; This function is called by:
   757 ;;		_main
   758 ;; This function uses a non-reentrant model
   759 ;;
   760                           
   761     054E                     _proceso_on:	
   762                           ;psect for function _proceso_on
   763                           
   764     054E                     l1602:	
   765                           ;incstack = 0
   766                           ; Regs used in _proceso_on: [wreg-fsr0h+status,2+status,0+btemp+1+pclath+cstack]
   767                           
   768                           
   769                           ;Codigo_fuente.c: 369:     if(on_off == 1){
   770     054E  1283               	bcf	3,5	;RP0=0, select bank0
   771     054F  1303               	bcf	3,6	;RP1=0, select bank0
   772     0550  0358               	decf	_on_off,w
   773     0551  1D03               	btfss	3,2
   774     0552  2D54               	goto	u1611
   775     0553  2D55               	goto	u1610
   776     0554                     u1611:
   777     0554  2D71               	goto	l184
   778     0555                     u1610:
   779     0555  2D61               	goto	l1612
   780     0556                     l186:	
   781                           ;Codigo_fuente.c: 371:             case modo_35w:
   782                           
   783                           
   784                           ;Codigo_fuente.c: 372:                 PORTCbits.RC0 = 1;
   785     0556  1407               	bsf	7,0	;volatile
   786                           
   787                           ;Codigo_fuente.c: 373:                 PORTCbits.RC1 = 0;
   788     0557  1087               	bcf	7,1	;volatile
   789     0558                     l1606:
   790                           
   791                           ;Codigo_fuente.c: 374:                 actualizar_temporizador();
   792     0558  120A  118A  2340  120A  118A  	fcall	_actualizar_temporizador
   793                           
   794                           ;Codigo_fuente.c: 375:                 break;
   795     055D  2D73               	goto	l190
   796     055E                     l188:	
   797                           ;Codigo_fuente.c: 376:             case modo_50w:
   798                           
   799                           
   800                           ;Codigo_fuente.c: 377:                 PORTCbits.RC0 = 0;
   801     055E  1007               	bcf	7,0	;volatile
   802                           
   803                           ;Codigo_fuente.c: 378:                 PORTCbits.RC1 = 1;
   804     055F  1487               	bsf	7,1	;volatile
   805     0560  2D58               	goto	l1606
   806     0561                     l1612:
   807     0561  0854               	movf	_modo_proceso,w
   808     0562  00FA               	movwf	??_proceso_on
   809     0563  01FB               	clrf	??_proceso_on+1
   810                           
   811                           ; Switch on 2 bytes has been partitioned into a top level switch of size 1, and 1 sub-sw
      +                          itches
   812                           ; Switch size 1, requested type "simple"
   813                           ; Number of cases is 1, Range of values is 0 to 0
   814                           ; switch strategies available:
   815                           ; Name         Instructions Cycles
   816                           ; simple_byte            4     3 (average)
   817                           ; direct_byte           11     8 (fixed)
   818                           ; jumptable            260     6 (fixed)
   819                           ;	Chosen strategy is simple_byte
   820     0564  087B               	movf	??_proceso_on+1,w
   821     0565  3A00               	xorlw	0	; case 0
   822     0566  1903               	skipnz
   823     0567  2D69               	goto	l1674
   824     0568  2D73               	goto	l190
   825     0569                     l1674:
   826                           
   827                           ; Switch size 1, requested type "simple"
   828                           ; Number of cases is 2, Range of values is 1 to 2
   829                           ; switch strategies available:
   830                           ; Name         Instructions Cycles
   831                           ; simple_byte            7     4 (average)
   832                           ; direct_byte           17    11 (fixed)
   833                           ; jumptable            263     9 (fixed)
   834                           ;	Chosen strategy is simple_byte
   835     0569  087A               	movf	??_proceso_on,w
   836     056A  3A01               	xorlw	1	; case 1
   837     056B  1903               	skipnz
   838     056C  2D56               	goto	l186
   839     056D  3A03               	xorlw	3	; case 2
   840     056E  1903               	skipnz
   841     056F  2D5E               	goto	l188
   842     0570  2D73               	goto	l190
   843     0571                     l184:
   844                           
   845                           ;Codigo_fuente.c: 383:         PORTCbits.RC1 = 0;
   846     0571  1087               	bcf	7,1	;volatile
   847                           
   848                           ;Codigo_fuente.c: 384:         PORTCbits.RC0 = 0;
   849     0572  1007               	bcf	7,0	;volatile
   850     0573                     l190:
   851     0573  0008               	return
   852     0574                     __end_of_proceso_on:
   853                           
   854                           	psect	text2
   855     0340                     __ptext2:	
   856 ;; *************** function _actualizar_temporizador *****************
   857 ;; Defined at:
   858 ;;		line 388 in file "Codigo_fuente.c"
   859 ;; Parameters:    Size  Location     Type
   860 ;;		None
   861 ;; Auto vars:     Size  Location     Type
   862 ;;  now             4   26[BANK0 ] unsigned long 
   863 ;; Return value:  Size  Location     Type
   864 ;;                  1    wreg      void 
   865 ;; Registers used:
   866 ;;		wreg, fsr0l, fsr0h, status,2, status,0, btemp+1, pclath, cstack
   867 ;; Tracked objects:
   868 ;;		On entry : 0/0
   869 ;;		On exit  : 0/0
   870 ;;		Unchanged: 0/0
   871 ;; Data sizes:     COMMON   BANK0   BANK1   BANK3   BANK2
   872 ;;      Params:         0       0       0       0       0
   873 ;;      Locals:         0       4       0       0       0
   874 ;;      Temps:          0       4       0       0       0
   875 ;;      Totals:         0       8       0       0       0
   876 ;;Total ram usage:        8 bytes
   877 ;; Hardware stack levels used: 1
   878 ;; Hardware stack levels required when called: 4
   879 ;; This function calls:
   880 ;;		_convertir_tiempo_a_display
   881 ;;		_millis
   882 ;;		_verificar_fin_temporizador
   883 ;; This function is called by:
   884 ;;		_proceso_on
   885 ;; This function uses a non-reentrant model
   886 ;;
   887                           
   888     0340                     _actualizar_temporizador:	
   889                           ;psect for function _actualizar_temporizador
   890                           
   891     0340                     l1430:	
   892                           ;incstack = 0
   893                           ; Regs used in _actualizar_temporizador: [wreg-fsr0h+status,2+status,0+btemp+1+pclath+cs
      +                          tack]
   894                           
   895                           
   896                           ;Codigo_fuente.c: 389:     static uint32_t last_second = 0;;Codigo_fuente.c: 390:     ui
      +                          nt32_t now = millis();
   897     0340  120A  118A  25B4  120A  118A  	fcall	_millis
   898     0345  0875               	movf	?_millis+3,w
   899     0346  1283               	bcf	3,5	;RP0=0, select bank0
   900     0347  1303               	bcf	3,6	;RP1=0, select bank0
   901     0348  00BD               	movwf	actualizar_temporizador@now+3
   902     0349  0874               	movf	?_millis+2,w
   903     034A  00BC               	movwf	actualizar_temporizador@now+2
   904     034B  0873               	movf	?_millis+1,w
   905     034C  00BB               	movwf	actualizar_temporizador@now+1
   906     034D  0872               	movf	?_millis,w
   907     034E  00BA               	movwf	actualizar_temporizador@now
   908     034F                     l1432:
   909                           
   910                           ;Codigo_fuente.c: 392:     if (!temporizador_activo) return;
   911     034F  0860               	movf	_temporizador_activo,w
   912     0350  1D03               	btfss	3,2
   913     0351  2B53               	goto	u1161
   914     0352  2B54               	goto	u1160
   915     0353                     u1161:
   916     0353  2B55               	goto	l1436
   917     0354                     u1160:
   918     0354  2BB4               	goto	l196
   919     0355                     l1436:
   920                           
   921                           ;Codigo_fuente.c: 395:     if ((now - last_second) >= 1000) {
   922     0355  083A               	movf	actualizar_temporizador@now,w
   923     0356  00B6               	movwf	??_actualizar_temporizador
   924     0357  083B               	movf	actualizar_temporizador@now+1,w
   925     0358  00B7               	movwf	??_actualizar_temporizador+1
   926     0359  083C               	movf	actualizar_temporizador@now+2,w
   927     035A  00B8               	movwf	??_actualizar_temporizador+2
   928     035B  083D               	movf	actualizar_temporizador@now+3,w
   929     035C  00B9               	movwf	??_actualizar_temporizador+3
   930     035D  083E               	movf	actualizar_temporizador@last_second,w
   931     035E  02B6               	subwf	??_actualizar_temporizador,f
   932     035F  083F               	movf	actualizar_temporizador@last_second+1,w
   933     0360  1C03               	skipc
   934     0361  0F3F               	incfsz	actualizar_temporizador@last_second+1,w
   935     0362  2B64               	goto	u1171
   936     0363  2B65               	goto	u1172
   937     0364                     u1171:
   938     0364  02B7               	subwf	??_actualizar_temporizador+1,f
   939     0365                     u1172:
   940     0365  0840               	movf	actualizar_temporizador@last_second+2,w
   941     0366  1C03               	skipc
   942     0367  0F40               	incfsz	actualizar_temporizador@last_second+2,w
   943     0368  2B6A               	goto	u1173
   944     0369  2B6B               	goto	u1174
   945     036A                     u1173:
   946     036A  02B8               	subwf	??_actualizar_temporizador+2,f
   947     036B                     u1174:
   948     036B  0841               	movf	actualizar_temporizador@last_second+3,w
   949     036C  1C03               	skipc
   950     036D  0F41               	incfsz	actualizar_temporizador@last_second+3,w
   951     036E  2B70               	goto	u1175
   952     036F  2B71               	goto	u1176
   953     0370                     u1175:
   954     0370  02B9               	subwf	??_actualizar_temporizador+3,f
   955     0371                     u1176:
   956     0371  0839               	movf	??_actualizar_temporizador+3,w
   957     0372  1D03               	btfss	3,2
   958     0373  2B83               	goto	u1180
   959     0374  0838               	movf	??_actualizar_temporizador+2,w
   960     0375  1D03               	btfss	3,2
   961     0376  2B83               	goto	u1180
   962     0377  3003               	movlw	3
   963     0378  0237               	subwf	??_actualizar_temporizador+1,w
   964     0379  1D03               	skipz
   965     037A  2B7F               	goto	u1183
   966     037B  30E8               	movlw	232
   967     037C  0236               	subwf	??_actualizar_temporizador,w
   968     037D  1D03               	skipz
   969     037E  2B7F               	goto	u1183
   970     037F                     u1183:
   971     037F  1C03               	btfss	3,0
   972     0380  2B82               	goto	u1181
   973     0381  2B83               	goto	u1180
   974     0382                     u1181:
   975     0382  2BB4               	goto	l196
   976     0383                     u1180:
   977     0383                     l1438:
   978                           
   979                           ;Codigo_fuente.c: 396:         last_second = now;
   980     0383  1283               	bcf	3,5	;RP0=0, select bank0
   981     0384  1303               	bcf	3,6	;RP1=0, select bank0
   982     0385  083D               	movf	actualizar_temporizador@now+3,w
   983     0386  00C1               	movwf	actualizar_temporizador@last_second+3
   984     0387  083C               	movf	actualizar_temporizador@now+2,w
   985     0388  00C0               	movwf	actualizar_temporizador@last_second+2
   986     0389  083B               	movf	actualizar_temporizador@now+1,w
   987     038A  00BF               	movwf	actualizar_temporizador@last_second+1
   988     038B  083A               	movf	actualizar_temporizador@now,w
   989     038C  00BE               	movwf	actualizar_temporizador@last_second
   990     038D                     l1440:
   991                           
   992                           ;Codigo_fuente.c: 399:         if (unidades > 0) {
   993     038D  0856               	movf	_unidades,w
   994     038E  1903               	btfsc	3,2
   995     038F  2B91               	goto	u1191
   996     0390  2B92               	goto	u1190
   997     0391                     u1191:
   998     0391  2B95               	goto	l1444
   999     0392                     u1190:
  1000     0392                     l1442:
  1001                           
  1002                           ;Codigo_fuente.c: 400:             unidades--;
  1003     0392  3001               	movlw	1
  1004     0393  02D6               	subwf	_unidades,f
  1005                           
  1006                           ;Codigo_fuente.c: 401:         } else {
  1007     0394  2BAF               	goto	l1460
  1008     0395                     l1444:
  1009                           
  1010                           ;Codigo_fuente.c: 403:             if (decenas > 0) {
  1011     0395  085F               	movf	_decenas,w
  1012     0396  1903               	btfsc	3,2
  1013     0397  2B99               	goto	u1201
  1014     0398  2B9A               	goto	u1200
  1015     0399                     u1201:
  1016     0399  2B9F               	goto	l1450
  1017     039A                     u1200:
  1018     039A                     l1446:
  1019                           
  1020                           ;Codigo_fuente.c: 404:                 decenas--;
  1021     039A  3001               	movlw	1
  1022     039B  02DF               	subwf	_decenas,f
  1023     039C                     l1448:
  1024                           
  1025                           ;Codigo_fuente.c: 405:                 unidades = 9;
  1026     039C  3009               	movlw	9
  1027     039D  00D6               	movwf	_unidades
  1028                           
  1029                           ;Codigo_fuente.c: 406:             } else {
  1030     039E  2BAF               	goto	l1460
  1031     039F                     l1450:
  1032                           
  1033                           ;Codigo_fuente.c: 407:                 if(centenas > 0){
  1034     039F  085E               	movf	_centenas,w
  1035     03A0  1903               	btfsc	3,2
  1036     03A1  2BA3               	goto	u1211
  1037     03A2  2BA4               	goto	u1210
  1038     03A3                     u1211:
  1039     03A3  2BA9               	goto	l1456
  1040     03A4                     u1210:
  1041     03A4                     l1452:
  1042                           
  1043                           ;Codigo_fuente.c: 408:                     centenas --;
  1044     03A4  3001               	movlw	1
  1045     03A5  02DE               	subwf	_centenas,f
  1046     03A6                     l1454:
  1047                           
  1048                           ;Codigo_fuente.c: 409:                     decenas = 9;
  1049     03A6  3009               	movlw	9
  1050     03A7  00DF               	movwf	_decenas
  1051                           
  1052                           ;Codigo_fuente.c: 410:                 }else{
  1053     03A8  2BAF               	goto	l1460
  1054     03A9                     l1456:
  1055                           
  1056                           ;Codigo_fuente.c: 412:                     temporizador_activo = 0;
  1057     03A9  01E0               	clrf	_temporizador_activo
  1058     03AA                     l1458:
  1059                           
  1060                           ;Codigo_fuente.c: 413:                     verificar_fin_temporizador();
  1061     03AA  120A  118A  2229  120A  118A  	fcall	_verificar_fin_temporizador
  1062     03AF                     l1460:
  1063                           
  1064                           ;Codigo_fuente.c: 418:         convertir_tiempo_a_display();
  1065     03AF  120A  118A  260C  120A  118A  	fcall	_convertir_tiempo_a_display
  1066     03B4                     l196:
  1067     03B4  0008               	return
  1068     03B5                     __end_of_actualizar_temporizador:
  1069                           
  1070                           	psect	text3
  1071     0229                     __ptext3:	
  1072 ;; *************** function _verificar_fin_temporizador *****************
  1073 ;; Defined at:
  1074 ;;		line 434 in file "Codigo_fuente.c"
  1075 ;; Parameters:    Size  Location     Type
  1076 ;;		None
  1077 ;; Auto vars:     Size  Location     Type
  1078 ;;  now             4   17[BANK0 ] unsigned long 
  1079 ;;  last_change     4   12[BANK0 ] unsigned long 
  1080 ;;  mostrar_dos_    1   21[BANK0 ] _Bool 
  1081 ;; Return value:  Size  Location     Type
  1082 ;;                  1    wreg      void 
  1083 ;; Registers used:
  1084 ;;		wreg, fsr0l, fsr0h, status,2, status,0, btemp+1, pclath, cstack
  1085 ;; Tracked objects:
  1086 ;;		On entry : 0/0
  1087 ;;		On exit  : 0/0
  1088 ;;		Unchanged: 0/0
  1089 ;; Data sizes:     COMMON   BANK0   BANK1   BANK3   BANK2
  1090 ;;      Params:         0       0       0       0       0
  1091 ;;      Locals:         0      10       0       0       0
  1092 ;;      Temps:          0       4       0       0       0
  1093 ;;      Totals:         0      14       0       0       0
  1094 ;;Total ram usage:       14 bytes
  1095 ;; Hardware stack levels used: 1
  1096 ;; Hardware stack levels required when called: 3
  1097 ;; This function calls:
  1098 ;;		_condiciones_iniciales
  1099 ;;		_millis
  1100 ;;		_mostrar_mensajes
  1101 ;;		_visualizar_display
  1102 ;; This function is called by:
  1103 ;;		_actualizar_temporizador
  1104 ;; This function uses a non-reentrant model
  1105 ;;
  1106                           
  1107     0229                     _verificar_fin_temporizador:	
  1108                           ;psect for function _verificar_fin_temporizador
  1109                           
  1110     0229                     l1338:	
  1111                           ;incstack = 0
  1112                           ; Regs used in _verificar_fin_temporizador: [wreg-fsr0h+status,2+status,0+btemp+1+pclath
      +                          +cstack]
  1113                           
  1114                           
  1115                           ;Codigo_fuente.c: 437:     PORTC = 0X00;
  1116     0229  1283               	bcf	3,5	;RP0=0, select bank0
  1117     022A  1303               	bcf	3,6	;RP1=0, select bank0
  1118     022B  0187               	clrf	7	;volatile
  1119     022C                     l1340:
  1120                           
  1121                           ;Codigo_fuente.c: 438:     uint32_t last_change = 0;
  1122     022C  3000               	movlw	0
  1123     022D  00AF               	movwf	verificar_fin_temporizador@last_change+3
  1124     022E  3000               	movlw	0
  1125     022F  00AE               	movwf	verificar_fin_temporizador@last_change+2
  1126     0230  3000               	movlw	0
  1127     0231  00AD               	movwf	verificar_fin_temporizador@last_change+1
  1128     0232  3000               	movlw	0
  1129     0233  00AC               	movwf	verificar_fin_temporizador@last_change
  1130     0234                     l1342:
  1131                           
  1132                           ;Codigo_fuente.c: 439:     _Bool mostrar_dos_ms = 0;
  1133     0234  01B5               	clrf	verificar_fin_temporizador@mostrar_dos_ms
  1134                           
  1135                           ;Codigo_fuente.c: 440:     const CARACTER MS_OFF[]={CHAR_O,CHAR_F,CHAR_F};;Codigo_fuente
      +                          .c: 441:     const CARACTER MS_CLEAR[] = {CHAR_CLEAR,CHAR_CLEAR,CHAR_CLEAR};;Codigo_fuen
      +                          te.c: 443:     while(on_off == 1) {
  1136     0235  2AC4               	goto	l1374
  1137     0236                     l1344:
  1138                           
  1139                           ;Codigo_fuente.c: 444:         visualizar_display();
  1140     0236  120A  118A  22CA  120A  118A  	fcall	_visualizar_display
  1141     023B                     l1346:
  1142                           
  1143                           ;Codigo_fuente.c: 445:         uint32_t now = millis();
  1144     023B  120A  118A  25B4  120A  118A  	fcall	_millis
  1145     0240  0875               	movf	?_millis+3,w
  1146     0241  1283               	bcf	3,5	;RP0=0, select bank0
  1147     0242  1303               	bcf	3,6	;RP1=0, select bank0
  1148     0243  00B4               	movwf	verificar_fin_temporizador@now+3
  1149     0244  0874               	movf	?_millis+2,w
  1150     0245  00B3               	movwf	verificar_fin_temporizador@now+2
  1151     0246  0873               	movf	?_millis+1,w
  1152     0247  00B2               	movwf	verificar_fin_temporizador@now+1
  1153     0248  0872               	movf	?_millis,w
  1154     0249  00B1               	movwf	verificar_fin_temporizador@now
  1155     024A                     l1348:
  1156                           
  1157                           ;Codigo_fuente.c: 446:         if((now - last_change) >= 500){
  1158     024A  0831               	movf	verificar_fin_temporizador@now,w
  1159     024B  00A8               	movwf	??_verificar_fin_temporizador
  1160     024C  0832               	movf	verificar_fin_temporizador@now+1,w
  1161     024D  00A9               	movwf	??_verificar_fin_temporizador+1
  1162     024E  0833               	movf	verificar_fin_temporizador@now+2,w
  1163     024F  00AA               	movwf	??_verificar_fin_temporizador+2
  1164     0250  0834               	movf	verificar_fin_temporizador@now+3,w
  1165     0251  00AB               	movwf	??_verificar_fin_temporizador+3
  1166     0252  082C               	movf	verificar_fin_temporizador@last_change,w
  1167     0253  02A8               	subwf	??_verificar_fin_temporizador,f
  1168     0254  082D               	movf	verificar_fin_temporizador@last_change+1,w
  1169     0255  1C03               	skipc
  1170     0256  0F2D               	incfsz	verificar_fin_temporizador@last_change+1,w
  1171     0257  2A59               	goto	u961
  1172     0258  2A5A               	goto	u962
  1173     0259                     u961:
  1174     0259  02A9               	subwf	??_verificar_fin_temporizador+1,f
  1175     025A                     u962:
  1176     025A  082E               	movf	verificar_fin_temporizador@last_change+2,w
  1177     025B  1C03               	skipc
  1178     025C  0F2E               	incfsz	verificar_fin_temporizador@last_change+2,w
  1179     025D  2A5F               	goto	u963
  1180     025E  2A60               	goto	u964
  1181     025F                     u963:
  1182     025F  02AA               	subwf	??_verificar_fin_temporizador+2,f
  1183     0260                     u964:
  1184     0260  082F               	movf	verificar_fin_temporizador@last_change+3,w
  1185     0261  1C03               	skipc
  1186     0262  0F2F               	incfsz	verificar_fin_temporizador@last_change+3,w
  1187     0263  2A65               	goto	u965
  1188     0264  2A66               	goto	u966
  1189     0265                     u965:
  1190     0265  02AB               	subwf	??_verificar_fin_temporizador+3,f
  1191     0266                     u966:
  1192     0266  082B               	movf	??_verificar_fin_temporizador+3,w
  1193     0267  1D03               	btfss	3,2
  1194     0268  2A78               	goto	u970
  1195     0269  082A               	movf	??_verificar_fin_temporizador+2,w
  1196     026A  1D03               	btfss	3,2
  1197     026B  2A78               	goto	u970
  1198     026C  3001               	movlw	1
  1199     026D  0229               	subwf	??_verificar_fin_temporizador+1,w
  1200     026E  1D03               	skipz
  1201     026F  2A74               	goto	u973
  1202     0270  30F4               	movlw	244
  1203     0271  0228               	subwf	??_verificar_fin_temporizador,w
  1204     0272  1D03               	skipz
  1205     0273  2A74               	goto	u973
  1206     0274                     u973:
  1207     0274  1C03               	btfss	3,0
  1208     0275  2A77               	goto	u971
  1209     0276  2A78               	goto	u970
  1210     0277                     u971:
  1211     0277  2A9C               	goto	l1362
  1212     0278                     u970:
  1213     0278                     l1350:
  1214                           
  1215                           ;Codigo_fuente.c: 447:             last_change = now;
  1216     0278  1283               	bcf	3,5	;RP0=0, select bank0
  1217     0279  1303               	bcf	3,6	;RP1=0, select bank0
  1218     027A  0834               	movf	verificar_fin_temporizador@now+3,w
  1219     027B  00AF               	movwf	verificar_fin_temporizador@last_change+3
  1220     027C  0833               	movf	verificar_fin_temporizador@now+2,w
  1221     027D  00AE               	movwf	verificar_fin_temporizador@last_change+2
  1222     027E  0832               	movf	verificar_fin_temporizador@now+1,w
  1223     027F  00AD               	movwf	verificar_fin_temporizador@last_change+1
  1224     0280  0831               	movf	verificar_fin_temporizador@now,w
  1225     0281  00AC               	movwf	verificar_fin_temporizador@last_change
  1226     0282                     l1352:
  1227                           
  1228                           ;Codigo_fuente.c: 448:             mostrar_dos_ms = !mostrar_dos_ms;
  1229     0282  0835               	movf	verificar_fin_temporizador@mostrar_dos_ms,w
  1230     0283  1903               	btfsc	3,2
  1231     0284  2A86               	goto	u981
  1232     0285  2A88               	goto	u980
  1233     0286                     u981:
  1234     0286  3001               	movlw	1
  1235     0287  2A89               	goto	u990
  1236     0288                     u980:
  1237     0288  3000               	movlw	0
  1238     0289                     u990:
  1239     0289  00B5               	movwf	verificar_fin_temporizador@mostrar_dos_ms
  1240     028A                     l1354:
  1241                           
  1242                           ;Codigo_fuente.c: 449:             mostrar_mensajes((mostrar_dos_ms == 1)? MS_OFF:MS_CLE
      +                          AR, 4);
  1243     028A  0335               	decf	verificar_fin_temporizador@mostrar_dos_ms,w
  1244     028B  1903               	btfsc	3,2
  1245     028C  2A8E               	goto	u1001
  1246     028D  2A8F               	goto	u1000
  1247     028E                     u1001:
  1248     028E  2A92               	goto	l1358
  1249     028F                     u1000:
  1250     028F                     l1356:
  1251     028F  3031               	movlw	(low ((verificar_fin_temporizador@MS_CLEAR-__stringbase)| (0+32768)))& (0+255)
  1252     0290  00B0               	movwf	_verificar_fin_temporizador$300
  1253     0291  2A94               	goto	l1360
  1254     0292                     l1358:
  1255     0292  3034               	movlw	(low ((verificar_fin_temporizador@MS_OFF-__stringbase)| (0+32768)))& (0+255)
  1256     0293  00B0               	movwf	_verificar_fin_temporizador$300
  1257     0294                     l1360:
  1258     0294  3004               	movlw	4
  1259     0295  00F2               	movwf	mostrar_mensajes@longitud
  1260     0296  0830               	movf	_verificar_fin_temporizador$300,w
  1261     0297  120A  118A  24D0  120A  118A  	fcall	_mostrar_mensajes
  1262     029C                     l1362:
  1263                           
  1264                           ;Codigo_fuente.c: 451:         if(PORTBbits.RB0 == 0){
  1265     029C  1283               	bcf	3,5	;RP0=0, select bank0
  1266     029D  1303               	bcf	3,6	;RP1=0, select bank0
  1267     029E  1806               	btfsc	6,0	;volatile
  1268     029F  2AA1               	goto	u1011
  1269     02A0  2AA2               	goto	u1010
  1270     02A1                     u1011:
  1271     02A1  2AC4               	goto	l1374
  1272     02A2                     u1010:
  1273     02A2                     l1364:
  1274                           
  1275                           ;Codigo_fuente.c: 452:             _delay((unsigned long)((20)*(4000000/4000.0)));
  1276     02A2  301A               	movlw	26
  1277     02A3  1283               	bcf	3,5	;RP0=0, select bank0
  1278     02A4  1303               	bcf	3,6	;RP1=0, select bank0
  1279     02A5  00A9               	movwf	??_verificar_fin_temporizador+1
  1280     02A6  30F7               	movlw	247
  1281     02A7  00A8               	movwf	??_verificar_fin_temporizador
  1282     02A8                     u1637:
  1283     02A8  0BA8               	decfsz	??_verificar_fin_temporizador,f
  1284     02A9  2AA8               	goto	u1637
  1285     02AA  0BA9               	decfsz	??_verificar_fin_temporizador+1,f
  1286     02AB  2AA8               	goto	u1637
  1287     02AC  2AAD               	nop2
  1288     02AD                     l1366:
  1289                           
  1290                           ;Codigo_fuente.c: 453:             if(PORTBbits.RB0 == 0){
  1291     02AD  1283               	bcf	3,5	;RP0=0, select bank0
  1292     02AE  1303               	bcf	3,6	;RP1=0, select bank0
  1293     02AF  1806               	btfsc	6,0	;volatile
  1294     02B0  2AB2               	goto	u1021
  1295     02B1  2AB3               	goto	u1020
  1296     02B2                     u1021:
  1297     02B2  2AC4               	goto	l1374
  1298     02B3                     u1020:
  1299     02B3                     l1368:
  1300                           
  1301                           ;Codigo_fuente.c: 454:                 condiciones_iniciales();
  1302     02B3  120A  118A  25ED  120A  118A  	fcall	_condiciones_iniciales
  1303                           
  1304                           ;Codigo_fuente.c: 455:                 while(PORTBbits.RB0 == 0){visualizar_display();}
  1305     02B8  2ABE               	goto	l1372
  1306     02B9                     l1370:
  1307     02B9  120A  118A  22CA  120A  118A  	fcall	_visualizar_display
  1308     02BE                     l1372:
  1309     02BE  1283               	bcf	3,5	;RP0=0, select bank0
  1310     02BF  1303               	bcf	3,6	;RP1=0, select bank0
  1311     02C0  1C06               	btfss	6,0	;volatile
  1312     02C1  2AC3               	goto	u1031
  1313     02C2  2AC4               	goto	u1030
  1314     02C3                     u1031:
  1315     02C3  2AB9               	goto	l1370
  1316     02C4                     u1030:
  1317     02C4                     l1374:
  1318                           
  1319                           ;Codigo_fuente.c: 443:     while(on_off == 1) {
  1320     02C4  0358               	decf	_on_off,w
  1321     02C5  1903               	btfsc	3,2
  1322     02C6  2AC8               	goto	u1041
  1323     02C7  2AC9               	goto	u1040
  1324     02C8                     u1041:
  1325     02C8  2A36               	goto	l1344
  1326     02C9                     u1040:
  1327     02C9                     l226:
  1328     02C9  0008               	return
  1329     02CA                     __end_of_verificar_fin_temporizador:
  1330                           
  1331                           	psect	text4
  1332     0029                     __ptext4:	
  1333 ;; *************** function _diferentes_mensajes *****************
  1334 ;; Defined at:
  1335 ;;		line 241 in file "Codigo_fuente.c"
  1336 ;; Parameters:    Size  Location     Type
  1337 ;;		None
  1338 ;; Auto vars:     Size  Location     Type
  1339 ;;  now             4   18[BANK0 ] unsigned long 
  1340 ;; Return value:  Size  Location     Type
  1341 ;;                  1    wreg      void 
  1342 ;; Registers used:
  1343 ;;		wreg, fsr0l, fsr0h, status,2, status,0, btemp+1, pclath, cstack
  1344 ;; Tracked objects:
  1345 ;;		On entry : 0/0
  1346 ;;		On exit  : 0/0
  1347 ;;		Unchanged: 0/0
  1348 ;; Data sizes:     COMMON   BANK0   BANK1   BANK3   BANK2
  1349 ;;      Params:         0       0       0       0       0
  1350 ;;      Locals:         0       4       0       0       0
  1351 ;;      Temps:          0       4       0       0       0
  1352 ;;      Totals:         0       8       0       0       0
  1353 ;;Total ram usage:        8 bytes
  1354 ;; Hardware stack levels used: 1
  1355 ;; Hardware stack levels required when called: 4
  1356 ;; This function calls:
  1357 ;;		___awmod
  1358 ;;		_convertir_tiempo_a_display
  1359 ;;		_efecto_titilar
  1360 ;;		_millis
  1361 ;;		_mostrar_mensajes
  1362 ;; This function is called by:
  1363 ;;		_main
  1364 ;; This function uses a non-reentrant model
  1365 ;;
  1366                           
  1367     0029                     _diferentes_mensajes:	
  1368                           ;psect for function _diferentes_mensajes
  1369                           
  1370     0029                     l1462:	
  1371                           ;incstack = 0
  1372                           ; Regs used in _diferentes_mensajes: [wreg-fsr0h+status,2+status,0+btemp+1+pclath+cstack
      +                          ]
  1373                           
  1374                           
  1375                           ;Codigo_fuente.c: 243:     static const CARACTER sec1[] = {CHAR_GSOMB,CHAR_SOM_GBAJO,CHA
      +                          R_GBAJO};;Codigo_fuente.c: 244:     static const CARACTER sec2[] = {CHAR_EZIZARRIBA,CHAR
      +                          _CLEAR,CHAR_EZDEABAJO};;Codigo_fuente.c: 245:     static const CARACTER sec3[] = {CHAR_I
      +                          ,CHAR_CLEAR,CHAR_BVERTICAL};;Codigo_fuente.c: 246:     static const CARACTER sec4[] = {C
      +                          HAR_EZIZBAJO,CHAR_CLEAR,CHAR_EZDEARRIBA};;Codigo_fuente.c: 247:     static const CARACTE
      +                          R sec5[] = {CHAR_GBAJO,CHAR_SOM_GBAJO,CHAR_GSOMB};;Codigo_fuente.c: 250:     static cons
      +                          t CARACTER ms_para_35w[] = {CHAR_P,CHAR_3,CHAR_5};
  1376     0029  120A  118A  25B4  120A  118A  	fcall	_millis
  1377     002E  0875               	movf	?_millis+3,w
  1378     002F  1283               	bcf	3,5	;RP0=0, select bank0
  1379     0030  1303               	bcf	3,6	;RP1=0, select bank0
  1380     0031  00B5               	movwf	diferentes_mensajes@now+3
  1381     0032  0874               	movf	?_millis+2,w
  1382     0033  00B4               	movwf	diferentes_mensajes@now+2
  1383     0034  0873               	movf	?_millis+1,w
  1384     0035  00B3               	movwf	diferentes_mensajes@now+1
  1385     0036  0872               	movf	?_millis,w
  1386     0037  00B2               	movwf	diferentes_mensajes@now
  1387     0038                     l1464:
  1388                           
  1389                           ;Codigo_fuente.c: 256:     static uint32_t last_change = 0;;Codigo_fuente.c: 257:     st
      +                          atic uint8_t mostrar_ms = 0;;Codigo_fuente.c: 258:     if(ms_state == MS_INIT && on_off 
      +                          == 0 && ms_tiempo == ms_tiempo_ninguno){
  1390     0038  0853               	movf	_ms_state,w
  1391     0039  1D03               	btfss	3,2
  1392     003A  283C               	goto	u1221
  1393     003B  283D               	goto	u1220
  1394     003C                     u1221:
  1395     003C  28D1               	goto	l1490
  1396     003D                     u1220:
  1397     003D                     l1466:
  1398     003D  0858               	movf	_on_off,w
  1399     003E  1D03               	btfss	3,2
  1400     003F  2841               	goto	u1231
  1401     0040  2842               	goto	u1230
  1402     0041                     u1231:
  1403     0041  28D1               	goto	l1490
  1404     0042                     u1230:
  1405     0042                     l1468:
  1406     0042  0855               	movf	_ms_tiempo,w
  1407     0043  1D03               	btfss	3,2
  1408     0044  2846               	goto	u1241
  1409     0045  2847               	goto	u1240
  1410     0046                     u1241:
  1411     0046  28D1               	goto	l1490
  1412     0047                     u1240:
  1413     0047                     l1470:
  1414                           
  1415                           ;Codigo_fuente.c: 259:         if((now - last_change) >= 200){
  1416     0047  0832               	movf	diferentes_mensajes@now,w
  1417     0048  00AE               	movwf	??_diferentes_mensajes
  1418     0049  0833               	movf	diferentes_mensajes@now+1,w
  1419     004A  00AF               	movwf	??_diferentes_mensajes+1
  1420     004B  0834               	movf	diferentes_mensajes@now+2,w
  1421     004C  00B0               	movwf	??_diferentes_mensajes+2
  1422     004D  0835               	movf	diferentes_mensajes@now+3,w
  1423     004E  00B1               	movwf	??_diferentes_mensajes+3
  1424     004F  0846               	movf	diferentes_mensajes@last_change,w
  1425     0050  02AE               	subwf	??_diferentes_mensajes,f
  1426     0051  0847               	movf	diferentes_mensajes@last_change+1,w
  1427     0052  1C03               	skipc
  1428     0053  0F47               	incfsz	diferentes_mensajes@last_change+1,w
  1429     0054  2856               	goto	u1251
  1430     0055  2857               	goto	u1252
  1431     0056                     u1251:
  1432     0056  02AF               	subwf	??_diferentes_mensajes+1,f
  1433     0057                     u1252:
  1434     0057  0848               	movf	diferentes_mensajes@last_change+2,w
  1435     0058  1C03               	skipc
  1436     0059  0F48               	incfsz	diferentes_mensajes@last_change+2,w
  1437     005A  285C               	goto	u1253
  1438     005B  285D               	goto	u1254
  1439     005C                     u1253:
  1440     005C  02B0               	subwf	??_diferentes_mensajes+2,f
  1441     005D                     u1254:
  1442     005D  0849               	movf	diferentes_mensajes@last_change+3,w
  1443     005E  1C03               	skipc
  1444     005F  0F49               	incfsz	diferentes_mensajes@last_change+3,w
  1445     0060  2862               	goto	u1255
  1446     0061  2863               	goto	u1256
  1447     0062                     u1255:
  1448     0062  02B1               	subwf	??_diferentes_mensajes+3,f
  1449     0063                     u1256:
  1450     0063  0831               	movf	??_diferentes_mensajes+3,w
  1451     0064  1D03               	btfss	3,2
  1452     0065  2874               	goto	u1260
  1453     0066  0830               	movf	??_diferentes_mensajes+2,w
  1454     0067  1D03               	btfss	3,2
  1455     0068  2874               	goto	u1260
  1456     0069  082F               	movf	??_diferentes_mensajes+1,w
  1457     006A  1D03               	btfss	3,2
  1458     006B  2874               	goto	u1260
  1459     006C  30C8               	movlw	200
  1460     006D  022E               	subwf	??_diferentes_mensajes,w
  1461     006E  1D03               	skipz
  1462     006F  2870               	goto	u1263
  1463     0070                     u1263:
  1464     0070  1C03               	btfss	3,0
  1465     0071  2873               	goto	u1261
  1466     0072  2874               	goto	u1260
  1467     0073                     u1261:
  1468     0073  28D1               	goto	l1490
  1469     0074                     u1260:
  1470     0074                     l1472:
  1471                           
  1472                           ;Codigo_fuente.c: 260:             last_change = now;
  1473     0074  1283               	bcf	3,5	;RP0=0, select bank0
  1474     0075  1303               	bcf	3,6	;RP1=0, select bank0
  1475     0076  0835               	movf	diferentes_mensajes@now+3,w
  1476     0077  00C9               	movwf	diferentes_mensajes@last_change+3
  1477     0078  0834               	movf	diferentes_mensajes@now+2,w
  1478     0079  00C8               	movwf	diferentes_mensajes@last_change+2
  1479     007A  0833               	movf	diferentes_mensajes@now+1,w
  1480     007B  00C7               	movwf	diferentes_mensajes@last_change+1
  1481     007C  0832               	movf	diferentes_mensajes@now,w
  1482     007D  00C6               	movwf	diferentes_mensajes@last_change
  1483     007E                     l1474:
  1484                           
  1485                           ;Codigo_fuente.c: 261:             mostrar_ms = (mostrar_ms + 1) % 5;
  1486     007E  3005               	movlw	5
  1487     007F  00F2               	movwf	___awmod@divisor
  1488     0080  3000               	movlw	0
  1489     0081  00F3               	movwf	___awmod@divisor+1
  1490     0082  0852               	movf	diferentes_mensajes@mostrar_ms,w
  1491     0083  3E01               	addlw	1
  1492     0084  00F4               	movwf	___awmod@dividend
  1493     0085  3000               	movlw	0
  1494     0086  1803               	skipnc
  1495     0087  3001               	movlw	1
  1496     0088  00F5               	movwf	___awmod@dividend+1
  1497     0089  120A  118A  2420  120A  118A  	fcall	___awmod
  1498     008E  0872               	movf	?___awmod,w
  1499     008F  1283               	bcf	3,5	;RP0=0, select bank0
  1500     0090  1303               	bcf	3,6	;RP1=0, select bank0
  1501     0091  00D2               	movwf	diferentes_mensajes@mostrar_ms
  1502                           
  1503                           ;Codigo_fuente.c: 262:             switch(mostrar_ms){
  1504     0092  28C0               	goto	l1488
  1505     0093                     l1476:
  1506     0093  3003               	movlw	3
  1507     0094  00F2               	movwf	mostrar_mensajes@longitud
  1508     0095  304F               	movlw	(low ((diferentes_mensajes@sec1-__stringbase)| (0+32768)))& (0+255)
  1509     0096  120A  118A  24D0  120A  118A  	fcall	_mostrar_mensajes
  1510     009B  28D1               	goto	l1490
  1511     009C                     l1478:
  1512     009C  3003               	movlw	3
  1513     009D  00F2               	movwf	mostrar_mensajes@longitud
  1514     009E  304C               	movlw	(low ((diferentes_mensajes@sec2-__stringbase)| (0+32768)))& (0+255)
  1515     009F  120A  118A  24D0  120A  118A  	fcall	_mostrar_mensajes
  1516     00A4  28D1               	goto	l1490
  1517     00A5                     l1480:
  1518     00A5  3003               	movlw	3
  1519     00A6  00F2               	movwf	mostrar_mensajes@longitud
  1520     00A7  3049               	movlw	(low ((diferentes_mensajes@sec3-__stringbase)| (0+32768)))& (0+255)
  1521     00A8  120A  118A  24D0  120A  118A  	fcall	_mostrar_mensajes
  1522     00AD  28D1               	goto	l1490
  1523     00AE                     l1482:
  1524     00AE  3003               	movlw	3
  1525     00AF  00F2               	movwf	mostrar_mensajes@longitud
  1526     00B0  3046               	movlw	(low ((diferentes_mensajes@sec4-__stringbase)| (0+32768)))& (0+255)
  1527     00B1  120A  118A  24D0  120A  118A  	fcall	_mostrar_mensajes
  1528     00B6  28D1               	goto	l1490
  1529     00B7                     l1484:
  1530     00B7  3003               	movlw	3
  1531     00B8  00F2               	movwf	mostrar_mensajes@longitud
  1532     00B9  3043               	movlw	(low ((diferentes_mensajes@sec5-__stringbase)| (0+32768)))& (0+255)
  1533     00BA  120A  118A  24D0  120A  118A  	fcall	_mostrar_mensajes
  1534     00BF  28D1               	goto	l1490
  1535     00C0                     l1488:
  1536     00C0  0852               	movf	diferentes_mensajes@mostrar_ms,w
  1537                           
  1538                           ; Switch size 1, requested type "simple"
  1539                           ; Number of cases is 5, Range of values is 0 to 4
  1540                           ; switch strategies available:
  1541                           ; Name         Instructions Cycles
  1542                           ; simple_byte           16     9 (average)
  1543                           ; direct_byte           23     8 (fixed)
  1544                           ; jumptable            260     6 (fixed)
  1545                           ;	Chosen strategy is simple_byte
  1546     00C1  3A00               	xorlw	0	; case 0
  1547     00C2  1903               	skipnz
  1548     00C3  2893               	goto	l1476
  1549     00C4  3A01               	xorlw	1	; case 1
  1550     00C5  1903               	skipnz
  1551     00C6  289C               	goto	l1478
  1552     00C7  3A03               	xorlw	3	; case 2
  1553     00C8  1903               	skipnz
  1554     00C9  28A5               	goto	l1480
  1555     00CA  3A01               	xorlw	1	; case 3
  1556     00CB  1903               	skipnz
  1557     00CC  28AE               	goto	l1482
  1558     00CD  3A07               	xorlw	7	; case 4
  1559     00CE  1903               	skipnz
  1560     00CF  28B7               	goto	l1484
  1561     00D0  28D1               	goto	l1490
  1562     00D1                     l1490:
  1563                           
  1564                           ;Codigo_fuente.c: 272:     if(ms_tiempo == ms_tiempo_ninguno){
  1565     00D1  1283               	bcf	3,5	;RP0=0, select bank0
  1566     00D2  1303               	bcf	3,6	;RP1=0, select bank0
  1567     00D3  0855               	movf	_ms_tiempo,w
  1568     00D4  1D03               	btfss	3,2
  1569     00D5  28D7               	goto	u1271
  1570     00D6  28D8               	goto	u1270
  1571     00D7                     u1271:
  1572     00D7  2923               	goto	l1514
  1573     00D8                     u1270:
  1574     00D8  2913               	goto	l1512
  1575     00D9                     l1494:
  1576                           
  1577                           ;Codigo_fuente.c: 275:                 efecto_titilar(ms_para_35w,3,500);
  1578     00D9  3003               	movlw	3
  1579     00DA  00A0               	movwf	efecto_titilar@longitud
  1580     00DB  3000               	movlw	0
  1581     00DC  00A4               	movwf	efecto_titilar@tiempo+3
  1582     00DD  3000               	movlw	0
  1583     00DE  00A3               	movwf	efecto_titilar@tiempo+2
  1584     00DF  3001               	movlw	1
  1585     00E0  00A2               	movwf	efecto_titilar@tiempo+1
  1586     00E1  30F4               	movlw	244
  1587     00E2  00A1               	movwf	efecto_titilar@tiempo
  1588     00E3  3040               	movlw	(low ((diferentes_mensajes@ms_para_35w-__stringbase)| (0+32768)))& (0+255)
  1589     00E4  120A  118A  23B5  120A  118A  	fcall	_efecto_titilar
  1590     00E9                     l1496:
  1591                           
  1592                           ;Codigo_fuente.c: 276:                 if(cont >=5){cont = 0;ms_state = MS_INIT; ms_tiem
      +                          po = ms_tiempo_35w;}
  1593     00E9  3005               	movlw	5
  1594     00EA  1283               	bcf	3,5	;RP0=0, select bank0
  1595     00EB  1303               	bcf	3,6	;RP1=0, select bank0
  1596     00EC  0257               	subwf	_cont,w
  1597     00ED  1C03               	skipc
  1598     00EE  28F0               	goto	u1281
  1599     00EF  28F1               	goto	u1280
  1600     00F0                     u1281:
  1601     00F0  2923               	goto	l1514
  1602     00F1                     u1280:
  1603     00F1                     l1498:
  1604     00F1  01D7               	clrf	_cont
  1605     00F2  01D3               	clrf	_ms_state
  1606     00F3                     l1500:
  1607     00F3  01D5               	clrf	_ms_tiempo
  1608     00F4  0AD5               	incf	_ms_tiempo,f
  1609     00F5  2923               	goto	l1514
  1610     00F6                     l1502:
  1611                           
  1612                           ;Codigo_fuente.c: 279:             efecto_titilar(ms_para_50w,3,500);
  1613     00F6  3003               	movlw	3
  1614     00F7  00A0               	movwf	efecto_titilar@longitud
  1615     00F8  3000               	movlw	0
  1616     00F9  00A4               	movwf	efecto_titilar@tiempo+3
  1617     00FA  3000               	movlw	0
  1618     00FB  00A3               	movwf	efecto_titilar@tiempo+2
  1619     00FC  3001               	movlw	1
  1620     00FD  00A2               	movwf	efecto_titilar@tiempo+1
  1621     00FE  30F4               	movlw	244
  1622     00FF  00A1               	movwf	efecto_titilar@tiempo
  1623     0100  303D               	movlw	(low ((diferentes_mensajes@ms_para_50w-__stringbase)| (0+32768)))& (0+255)
  1624     0101  120A  118A  23B5  120A  118A  	fcall	_efecto_titilar
  1625     0106                     l1504:
  1626                           
  1627                           ;Codigo_fuente.c: 280:             if(cont >=5){cont =0;ms_state = MS_INIT; ms_tiempo = 
      +                          ms_tiempo_50w;}
  1628     0106  3005               	movlw	5
  1629     0107  1283               	bcf	3,5	;RP0=0, select bank0
  1630     0108  1303               	bcf	3,6	;RP1=0, select bank0
  1631     0109  0257               	subwf	_cont,w
  1632     010A  1C03               	skipc
  1633     010B  290D               	goto	u1291
  1634     010C  290E               	goto	u1290
  1635     010D                     u1291:
  1636     010D  2923               	goto	l1514
  1637     010E                     u1290:
  1638     010E                     l1506:
  1639     010E  01D7               	clrf	_cont
  1640     010F  01D3               	clrf	_ms_state
  1641     0110                     l1508:
  1642     0110  3002               	movlw	2
  1643     0111  00D5               	movwf	_ms_tiempo
  1644     0112  2923               	goto	l1514
  1645     0113                     l1512:
  1646     0113  0853               	movf	_ms_state,w
  1647     0114  00AE               	movwf	??_diferentes_mensajes
  1648     0115  01AF               	clrf	??_diferentes_mensajes+1
  1649                           
  1650                           ; Switch on 2 bytes has been partitioned into a top level switch of size 1, and 1 sub-sw
      +                          itches
  1651                           ; Switch size 1, requested type "simple"
  1652                           ; Number of cases is 1, Range of values is 0 to 0
  1653                           ; switch strategies available:
  1654                           ; Name         Instructions Cycles
  1655                           ; simple_byte            4     3 (average)
  1656                           ; direct_byte           11     8 (fixed)
  1657                           ; jumptable            260     6 (fixed)
  1658                           ;	Chosen strategy is simple_byte
  1659     0116  082F               	movf	??_diferentes_mensajes+1,w
  1660     0117  3A00               	xorlw	0	; case 0
  1661     0118  1903               	skipnz
  1662     0119  291B               	goto	l1676
  1663     011A  2923               	goto	l1514
  1664     011B                     l1676:
  1665                           
  1666                           ; Switch size 1, requested type "simple"
  1667                           ; Number of cases is 2, Range of values is 1 to 2
  1668                           ; switch strategies available:
  1669                           ; Name         Instructions Cycles
  1670                           ; simple_byte            7     4 (average)
  1671                           ; direct_byte           17    11 (fixed)
  1672                           ; jumptable            263     9 (fixed)
  1673                           ;	Chosen strategy is simple_byte
  1674     011B  082E               	movf	??_diferentes_mensajes,w
  1675     011C  3A01               	xorlw	1	; case 1
  1676     011D  1903               	skipnz
  1677     011E  28D9               	goto	l1494
  1678     011F  3A03               	xorlw	3	; case 2
  1679     0120  1903               	skipnz
  1680     0121  28F6               	goto	l1502
  1681     0122  2923               	goto	l1514
  1682     0123                     l1514:
  1683                           
  1684                           ;Codigo_fuente.c: 288:     if(ms_tiempo == ms_tiempo_35w && ms_state == MS_INIT){
  1685     0123  0355               	decf	_ms_tiempo,w
  1686     0124  1D03               	btfss	3,2
  1687     0125  2927               	goto	u1301
  1688     0126  2928               	goto	u1300
  1689     0127                     u1301:
  1690     0127  2932               	goto	l1520
  1691     0128                     u1300:
  1692     0128                     l1516:
  1693     0128  0853               	movf	_ms_state,w
  1694     0129  1D03               	btfss	3,2
  1695     012A  292C               	goto	u1311
  1696     012B  292D               	goto	u1310
  1697     012C                     u1311:
  1698     012C  2932               	goto	l1520
  1699     012D                     u1310:
  1700     012D                     l1518:
  1701                           
  1702                           ;Codigo_fuente.c: 289:         convertir_tiempo_a_display();
  1703     012D  120A  118A  260C  120A  118A  	fcall	_convertir_tiempo_a_display
  1704     0132                     l1520:
  1705                           
  1706                           ;Codigo_fuente.c: 295:     if(ms_tiempo == ms_tiempo_50w && ms_state == MS_INIT){
  1707     0132  3002               	movlw	2
  1708     0133  1283               	bcf	3,5	;RP0=0, select bank0
  1709     0134  1303               	bcf	3,6	;RP1=0, select bank0
  1710     0135  0655               	xorwf	_ms_tiempo,w
  1711     0136  1D03               	btfss	3,2
  1712     0137  2939               	goto	u1321
  1713     0138  293A               	goto	u1320
  1714     0139                     u1321:
  1715     0139  2944               	goto	l1526
  1716     013A                     u1320:
  1717     013A                     l1522:
  1718     013A  0853               	movf	_ms_state,w
  1719     013B  1D03               	btfss	3,2
  1720     013C  293E               	goto	u1331
  1721     013D  293F               	goto	u1330
  1722     013E                     u1331:
  1723     013E  2944               	goto	l1526
  1724     013F                     u1330:
  1725     013F                     l1524:
  1726                           
  1727                           ;Codigo_fuente.c: 296:         convertir_tiempo_a_display();
  1728     013F  120A  118A  260C  120A  118A  	fcall	_convertir_tiempo_a_display
  1729     0144                     l1526:
  1730                           
  1731                           ;Codigo_fuente.c: 300:     if(ms_state == MS_ON){
  1732     0144  3003               	movlw	3
  1733     0145  1283               	bcf	3,5	;RP0=0, select bank0
  1734     0146  1303               	bcf	3,6	;RP1=0, select bank0
  1735     0147  0653               	xorwf	_ms_state,w
  1736     0148  1D03               	btfss	3,2
  1737     0149  294B               	goto	u1341
  1738     014A  294C               	goto	u1340
  1739     014B                     u1341:
  1740     014B  296E               	goto	l141
  1741     014C                     u1340:
  1742     014C                     l1528:
  1743                           
  1744                           ;Codigo_fuente.c: 301:         efecto_titilar(ms_inicio_proceso,3,500);
  1745     014C  3003               	movlw	3
  1746     014D  00A0               	movwf	efecto_titilar@longitud
  1747     014E  3000               	movlw	0
  1748     014F  00A4               	movwf	efecto_titilar@tiempo+3
  1749     0150  3000               	movlw	0
  1750     0151  00A3               	movwf	efecto_titilar@tiempo+2
  1751     0152  3001               	movlw	1
  1752     0153  00A2               	movwf	efecto_titilar@tiempo+1
  1753     0154  30F4               	movlw	244
  1754     0155  00A1               	movwf	efecto_titilar@tiempo
  1755     0156  303A               	movlw	(low ((diferentes_mensajes@ms_inicio_proceso-__stringbase)| (0+32768)))& (0+255)
  1756     0157  120A  118A  23B5  120A  118A  	fcall	_efecto_titilar
  1757     015C                     l1530:
  1758                           
  1759                           ;Codigo_fuente.c: 302:         if(cont>=5){cont = 0;ms_state = MS_INIT; on_off = !on_off
      +                          ;}
  1760     015C  3005               	movlw	5
  1761     015D  1283               	bcf	3,5	;RP0=0, select bank0
  1762     015E  1303               	bcf	3,6	;RP1=0, select bank0
  1763     015F  0257               	subwf	_cont,w
  1764     0160  1C03               	skipc
  1765     0161  2963               	goto	u1351
  1766     0162  2964               	goto	u1350
  1767     0163                     u1351:
  1768     0163  296E               	goto	l141
  1769     0164                     u1350:
  1770     0164                     l1532:
  1771     0164  01D7               	clrf	_cont
  1772     0165  01D3               	clrf	_ms_state
  1773     0166                     l1534:
  1774     0166  0858               	movf	_on_off,w
  1775     0167  1903               	btfsc	3,2
  1776     0168  296A               	goto	u1361
  1777     0169  296C               	goto	u1360
  1778     016A                     u1361:
  1779     016A  3001               	movlw	1
  1780     016B  296D               	goto	u1370
  1781     016C                     u1360:
  1782     016C  3000               	movlw	0
  1783     016D                     u1370:
  1784     016D  00D8               	movwf	_on_off
  1785     016E                     l141:
  1786     016E  0008               	return
  1787     016F                     __end_of_diferentes_mensajes:
  1788                           
  1789                           	psect	text5
  1790     03B5                     __ptext5:	
  1791 ;; *************** function _efecto_titilar *****************
  1792 ;; Defined at:
  1793 ;;		line 307 in file "Codigo_fuente.c"
  1794 ;; Parameters:    Size  Location     Type
  1795 ;;  mensaje         1    wreg     PTR const enum E1034
  1796 ;;		 -> diferentes_mensajes@ms_inicio_proceso(3), diferentes_mensajes@ms_para_50w(3), diferentes_mensajes@ms_para_35w(3)
      +, 
  1797 ;;  longitud        1    0[BANK0 ] unsigned char 
  1798 ;;  tiempo          4    1[BANK0 ] unsigned long 
  1799 ;; Auto vars:     Size  Location     Type
  1800 ;;  mensaje         1   13[BANK0 ] PTR const enum E1034
  1801 ;;		 -> diferentes_mensajes@ms_inicio_proceso(3), diferentes_mensajes@ms_para_50w(3), diferentes_mensajes@ms_para_35w(3)
      +, 
  1802 ;;  now             4    9[BANK0 ] unsigned long 
  1803 ;; Return value:  Size  Location     Type
  1804 ;;                  1    wreg      void 
  1805 ;; Registers used:
  1806 ;;		wreg, fsr0l, fsr0h, status,2, status,0, btemp+1, pclath, cstack
  1807 ;; Tracked objects:
  1808 ;;		On entry : 0/0
  1809 ;;		On exit  : 0/0
  1810 ;;		Unchanged: 0/0
  1811 ;; Data sizes:     COMMON   BANK0   BANK1   BANK3   BANK2
  1812 ;;      Params:         0       5       0       0       0
  1813 ;;      Locals:         0       5       0       0       0
  1814 ;;      Temps:          0       4       0       0       0
  1815 ;;      Totals:         0      14       0       0       0
  1816 ;;Total ram usage:       14 bytes
  1817 ;; Hardware stack levels used: 1
  1818 ;; Hardware stack levels required when called: 3
  1819 ;; This function calls:
  1820 ;;		_millis
  1821 ;;		_mostrar_mensajes
  1822 ;; This function is called by:
  1823 ;;		_diferentes_mensajes
  1824 ;; This function uses a non-reentrant model
  1825 ;;
  1826                           
  1827     03B5                     _efecto_titilar:	
  1828                           ;psect for function _efecto_titilar
  1829                           
  1830                           
  1831                           ;incstack = 0
  1832                           ; Regs used in _efecto_titilar: [wreg-fsr0h+status,2+status,0+btemp+1+pclath+cstack]
  1833                           ;efecto_titilar@mensaje stored from wreg
  1834     03B5  1283               	bcf	3,5	;RP0=0, select bank0
  1835     03B6  1303               	bcf	3,6	;RP1=0, select bank0
  1836     03B7  00AD               	movwf	efecto_titilar@mensaje
  1837     03B8                     l1376:
  1838                           
  1839                           ;Codigo_fuente.c: 308:     static uint32_t last_change = 0;;Codigo_fuente.c: 309:     st
      +                          atic _Bool mostrar = 1;;Codigo_fuente.c: 311:     uint32_t now = millis();
  1840     03B8  120A  118A  25B4  120A  118A  	fcall	_millis
  1841     03BD  0875               	movf	?_millis+3,w
  1842     03BE  1283               	bcf	3,5	;RP0=0, select bank0
  1843     03BF  1303               	bcf	3,6	;RP1=0, select bank0
  1844     03C0  00AC               	movwf	efecto_titilar@now+3
  1845     03C1  0874               	movf	?_millis+2,w
  1846     03C2  00AB               	movwf	efecto_titilar@now+2
  1847     03C3  0873               	movf	?_millis+1,w
  1848     03C4  00AA               	movwf	efecto_titilar@now+1
  1849     03C5  0872               	movf	?_millis,w
  1850     03C6  00A9               	movwf	efecto_titilar@now
  1851     03C7                     l1378:
  1852                           
  1853                           ;Codigo_fuente.c: 312:     if ((now - last_change) >= tiempo) {
  1854     03C7  0829               	movf	efecto_titilar@now,w
  1855     03C8  00A5               	movwf	??_efecto_titilar
  1856     03C9  082A               	movf	efecto_titilar@now+1,w
  1857     03CA  00A6               	movwf	??_efecto_titilar+1
  1858     03CB  082B               	movf	efecto_titilar@now+2,w
  1859     03CC  00A7               	movwf	??_efecto_titilar+2
  1860     03CD  082C               	movf	efecto_titilar@now+3,w
  1861     03CE  00A8               	movwf	??_efecto_titilar+3
  1862     03CF  0842               	movf	efecto_titilar@last_change,w
  1863     03D0  02A5               	subwf	??_efecto_titilar,f
  1864     03D1  0843               	movf	efecto_titilar@last_change+1,w
  1865     03D2  1C03               	skipc
  1866     03D3  0F43               	incfsz	efecto_titilar@last_change+1,w
  1867     03D4  2BD6               	goto	u1051
  1868     03D5  2BD7               	goto	u1052
  1869     03D6                     u1051:
  1870     03D6  02A6               	subwf	??_efecto_titilar+1,f
  1871     03D7                     u1052:
  1872     03D7  0844               	movf	efecto_titilar@last_change+2,w
  1873     03D8  1C03               	skipc
  1874     03D9  0F44               	incfsz	efecto_titilar@last_change+2,w
  1875     03DA  2BDC               	goto	u1053
  1876     03DB  2BDD               	goto	u1054
  1877     03DC                     u1053:
  1878     03DC  02A7               	subwf	??_efecto_titilar+2,f
  1879     03DD                     u1054:
  1880     03DD  0845               	movf	efecto_titilar@last_change+3,w
  1881     03DE  1C03               	skipc
  1882     03DF  0F45               	incfsz	efecto_titilar@last_change+3,w
  1883     03E0  2BE2               	goto	u1055
  1884     03E1  2BE3               	goto	u1056
  1885     03E2                     u1055:
  1886     03E2  02A8               	subwf	??_efecto_titilar+3,f
  1887     03E3                     u1056:
  1888     03E3  0824               	movf	efecto_titilar@tiempo+3,w
  1889     03E4  0228               	subwf	??_efecto_titilar+3,w
  1890     03E5  1D03               	skipz
  1891     03E6  2BF1               	goto	u1065
  1892     03E7  0823               	movf	efecto_titilar@tiempo+2,w
  1893     03E8  0227               	subwf	??_efecto_titilar+2,w
  1894     03E9  1D03               	skipz
  1895     03EA  2BF1               	goto	u1065
  1896     03EB  0822               	movf	efecto_titilar@tiempo+1,w
  1897     03EC  0226               	subwf	??_efecto_titilar+1,w
  1898     03ED  1D03               	skipz
  1899     03EE  2BF1               	goto	u1065
  1900     03EF  0821               	movf	efecto_titilar@tiempo,w
  1901     03F0  0225               	subwf	??_efecto_titilar,w
  1902     03F1                     u1065:
  1903     03F1  1C03               	skipc
  1904     03F2  2BF4               	goto	u1061
  1905     03F3  2BF5               	goto	u1060
  1906     03F4                     u1061:
  1907     03F4  2C1F               	goto	l153
  1908     03F5                     u1060:
  1909     03F5                     l1380:
  1910                           
  1911                           ;Codigo_fuente.c: 313:         last_change = now;
  1912     03F5  082C               	movf	efecto_titilar@now+3,w
  1913     03F6  00C5               	movwf	efecto_titilar@last_change+3
  1914     03F7  082B               	movf	efecto_titilar@now+2,w
  1915     03F8  00C4               	movwf	efecto_titilar@last_change+2
  1916     03F9  082A               	movf	efecto_titilar@now+1,w
  1917     03FA  00C3               	movwf	efecto_titilar@last_change+1
  1918     03FB  0829               	movf	efecto_titilar@now,w
  1919     03FC  00C2               	movwf	efecto_titilar@last_change
  1920     03FD                     l1382:
  1921                           
  1922                           ;Codigo_fuente.c: 314:         mostrar = !mostrar;
  1923     03FD  085D               	movf	efecto_titilar@mostrar,w
  1924     03FE  1903               	btfsc	3,2
  1925     03FF  2C01               	goto	u1071
  1926     0400  2C03               	goto	u1070
  1927     0401                     u1071:
  1928     0401  3001               	movlw	1
  1929     0402  2C04               	goto	u1080
  1930     0403                     u1070:
  1931     0403  3000               	movlw	0
  1932     0404                     u1080:
  1933     0404  00DD               	movwf	efecto_titilar@mostrar
  1934     0405                     l1384:
  1935                           
  1936                           ;Codigo_fuente.c: 315:         cont ++;
  1937     0405  3001               	movlw	1
  1938     0406  00FF               	movwf	btemp+1
  1939     0407  087F               	movf	btemp+1,w
  1940     0408  07D7               	addwf	_cont,f
  1941     0409                     l1386:
  1942                           
  1943                           ;Codigo_fuente.c: 316:         if(mostrar) {
  1944     0409  085D               	movf	efecto_titilar@mostrar,w
  1945     040A  1903               	btfsc	3,2
  1946     040B  2C0D               	goto	u1091
  1947     040C  2C0E               	goto	u1090
  1948     040D                     u1091:
  1949     040D  2C17               	goto	l1390
  1950     040E                     u1090:
  1951     040E                     l1388:
  1952                           
  1953                           ;Codigo_fuente.c: 317:             mostrar_mensajes(mensaje, longitud);
  1954     040E  0820               	movf	efecto_titilar@longitud,w
  1955     040F  00F2               	movwf	mostrar_mensajes@longitud
  1956     0410  082D               	movf	efecto_titilar@mensaje,w
  1957     0411  120A  118A  24D0  120A  118A  	fcall	_mostrar_mensajes
  1958                           
  1959                           ;Codigo_fuente.c: 318:         } else {
  1960     0416  2C1F               	goto	l153
  1961     0417                     l1390:
  1962                           
  1963                           ;Codigo_fuente.c: 319:             const CARACTER apagado[3] = {CHAR_CLEAR, CHAR_CLEAR, 
      +                          CHAR_CLEAR};;Codigo_fuente.c: 320:             mostrar_mensajes(apagado, 3);
  1964     0417  3003               	movlw	3
  1965     0418  00F2               	movwf	mostrar_mensajes@longitud
  1966     0419  3037               	movlw	(low ((efecto_titilar@apagado-__stringbase)| (0+32768)))& (0+255)
  1967     041A  120A  118A  24D0  120A  118A  	fcall	_mostrar_mensajes
  1968     041F                     l153:
  1969     041F  0008               	return
  1970     0420                     __end_of_efecto_titilar:
  1971                           
  1972                           	psect	text6
  1973     04D0                     __ptext6:	
  1974 ;; *************** function _mostrar_mensajes *****************
  1975 ;; Defined at:
  1976 ;;		line 234 in file "Codigo_fuente.c"
  1977 ;; Parameters:    Size  Location     Type
  1978 ;;  mensaje         1    wreg     PTR const enum E1034
  1979 ;;		 -> verificar_fin_temporizador@MS_CLEAR(3), verificar_fin_temporizador@MS_OFF(3), efecto_titilar@apagado(3), diferen
      +tes_mensajes@ms_inicio_proceso(3), 
  1980 ;;		 -> diferentes_mensajes@ms_para_50w(3), diferentes_mensajes@ms_para_35w(3), diferentes_mensajes@sec5(3), diferentes_
      +mensajes@sec4(3), 
  1981 ;;		 -> diferentes_mensajes@sec3(3), diferentes_mensajes@sec2(3), diferentes_mensajes@sec1(3), 
  1982 ;;  longitud        1    2[COMMON] unsigned char 
  1983 ;; Auto vars:     Size  Location     Type
  1984 ;;  mensaje         1    7[COMMON] PTR const enum E1034
  1985 ;;		 -> verificar_fin_temporizador@MS_CLEAR(3), verificar_fin_temporizador@MS_OFF(3), efecto_titilar@apagado(3), diferen
      +tes_mensajes@ms_inicio_proceso(3), 
  1986 ;;		 -> diferentes_mensajes@ms_para_50w(3), diferentes_mensajes@ms_para_35w(3), diferentes_mensajes@sec5(3), diferentes_
      +mensajes@sec4(3), 
  1987 ;;		 -> diferentes_mensajes@sec3(3), diferentes_mensajes@sec2(3), diferentes_mensajes@sec1(3), 
  1988 ;;  i               1    8[COMMON] unsigned char 
  1989 ;; Return value:  Size  Location     Type
  1990 ;;                  1    wreg      void 
  1991 ;; Registers used:
  1992 ;;		wreg, fsr0l, fsr0h, status,2, status,0, btemp+1, pclath
  1993 ;; Tracked objects:
  1994 ;;		On entry : 0/0
  1995 ;;		On exit  : 0/0
  1996 ;;		Unchanged: 0/0
  1997 ;; Data sizes:     COMMON   BANK0   BANK1   BANK3   BANK2
  1998 ;;      Params:         1       0       0       0       0
  1999 ;;      Locals:         4       0       0       0       0
  2000 ;;      Temps:          2       0       0       0       0
  2001 ;;      Totals:         7       0       0       0       0
  2002 ;;Total ram usage:        7 bytes
  2003 ;; Hardware stack levels used: 2
  2004 ;; Hardware stack levels required when called: 1
  2005 ;; This function calls:
  2006 ;;		Nothing
  2007 ;; This function is called by:
  2008 ;;		_diferentes_mensajes
  2009 ;;		_efecto_titilar
  2010 ;;		_verificar_fin_temporizador
  2011 ;; This function uses a non-reentrant model
  2012 ;;
  2013                           
  2014     04D0                     _mostrar_mensajes:	
  2015                           ;psect for function _mostrar_mensajes
  2016                           
  2017                           
  2018                           ;incstack = 0
  2019                           ; Regs used in _mostrar_mensajes: [wreg-fsr0h+status,2+status,0+btemp+1+pclath]
  2020                           ;mostrar_mensajes@mensaje stored from wreg
  2021     04D0  00F7               	movwf	mostrar_mensajes@mensaje
  2022     04D1                     l1306:
  2023                           
  2024                           ;Codigo_fuente.c: 235:     for(uint8_t i = 0; i < 3; i++){
  2025     04D1  01F8               	clrf	mostrar_mensajes@i
  2026     04D2                     l1312:
  2027                           
  2028                           ;Codigo_fuente.c: 236:         display_buffer[i] = (i < longitud) ? mensaje[i]: CHAR_CLE
      +                          AR;
  2029     04D2  0872               	movf	mostrar_mensajes@longitud,w
  2030     04D3  0278               	subwf	mostrar_mensajes@i,w
  2031     04D4  1C03               	skipc
  2032     04D5  2CD7               	goto	u941
  2033     04D6  2CD8               	goto	u940
  2034     04D7                     u941:
  2035     04D7  2CDD               	goto	l1316
  2036     04D8                     u940:
  2037     04D8                     l1314:
  2038     04D8  3027               	movlw	39
  2039     04D9  00F5               	movwf	_mostrar_mensajes$248
  2040     04DA  3000               	movlw	0
  2041     04DB  00F6               	movwf	_mostrar_mensajes$248+1
  2042     04DC  2CEB               	goto	l1318
  2043     04DD                     l1316:
  2044     04DD  0878               	movf	mostrar_mensajes@i,w
  2045     04DE  0777               	addwf	mostrar_mensajes@mensaje,w
  2046     04DF  0084               	movwf	4
  2047     04E0  120A  118A  2479  120A  118A  	fcall	stringdir
  2048     04E5  00F3               	movwf	??_mostrar_mensajes
  2049     04E6  01F4               	clrf	??_mostrar_mensajes+1
  2050     04E7  0873               	movf	??_mostrar_mensajes,w
  2051     04E8  00F5               	movwf	_mostrar_mensajes$248
  2052     04E9  0874               	movf	??_mostrar_mensajes+1,w
  2053     04EA  00F6               	movwf	_mostrar_mensajes$248+1
  2054     04EB                     l1318:
  2055     04EB  0878               	movf	mostrar_mensajes@i,w
  2056     04EC  3E5A               	addlw	(low (_display_buffer| 0))& (0+255)
  2057     04ED  0084               	movwf	4
  2058     04EE  0875               	movf	_mostrar_mensajes$248,w
  2059     04EF  1383               	bcf	3,7	;select IRP bank0
  2060     04F0  0080               	movwf	0
  2061     04F1                     l1320:
  2062                           
  2063                           ;Codigo_fuente.c: 237:     }
  2064     04F1  3001               	movlw	1
  2065     04F2  00FF               	movwf	btemp+1
  2066     04F3  087F               	movf	btemp+1,w
  2067     04F4  07F8               	addwf	mostrar_mensajes@i,f
  2068     04F5                     l1322:
  2069     04F5  3003               	movlw	3
  2070     04F6  0278               	subwf	mostrar_mensajes@i,w
  2071     04F7  1C03               	skipc
  2072     04F8  2CFA               	goto	u951
  2073     04F9  2CFB               	goto	u950
  2074     04FA                     u951:
  2075     04FA  2CD2               	goto	l1312
  2076     04FB                     u950:
  2077     04FB                     l98:
  2078     04FB  0008               	return
  2079     04FC                     __end_of_mostrar_mensajes:
  2080                           
  2081                           	psect	text7
  2082     05FD                     __ptext7:	
  2083 ;; *************** function _configurar_tmr0 *****************
  2084 ;; Defined at:
  2085 ;;		line 188 in file "Codigo_fuente.c"
  2086 ;; Parameters:    Size  Location     Type
  2087 ;;		None
  2088 ;; Auto vars:     Size  Location     Type
  2089 ;;		None
  2090 ;; Return value:  Size  Location     Type
  2091 ;;                  1    wreg      void 
  2092 ;; Registers used:
  2093 ;;		wreg, status,2, status,0
  2094 ;; Tracked objects:
  2095 ;;		On entry : 0/0
  2096 ;;		On exit  : 0/0
  2097 ;;		Unchanged: 0/0
  2098 ;; Data sizes:     COMMON   BANK0   BANK1   BANK3   BANK2
  2099 ;;      Params:         0       0       0       0       0
  2100 ;;      Locals:         0       0       0       0       0
  2101 ;;      Temps:          0       0       0       0       0
  2102 ;;      Totals:         0       0       0       0       0
  2103 ;;Total ram usage:        0 bytes
  2104 ;; Hardware stack levels used: 1
  2105 ;; Hardware stack levels required when called: 1
  2106 ;; This function calls:
  2107 ;;		Nothing
  2108 ;; This function is called by:
  2109 ;;		_main
  2110 ;; This function uses a non-reentrant model
  2111 ;;
  2112                           
  2113     05FD                     _configurar_tmr0:	
  2114                           ;psect for function _configurar_tmr0
  2115                           
  2116     05FD                     l1024:	
  2117                           ;incstack = 0
  2118                           ; Regs used in _configurar_tmr0: [wreg+status,2+status,0]
  2119                           
  2120                           
  2121                           ;Codigo_fuente.c: 190:     OPTION_REGbits.PS = 0b010;
  2122     05FD  1683               	bsf	3,5	;RP0=1, select bank1
  2123     05FE  1303               	bcf	3,6	;RP1=0, select bank1
  2124     05FF  0801               	movf	1,w	;volatile
  2125     0600  39F8               	andlw	-8
  2126     0601  3802               	iorlw	2
  2127     0602  0081               	movwf	1	;volatile
  2128     0603                     l1026:
  2129                           
  2130                           ;Codigo_fuente.c: 191:     OPTION_REGbits.PSA = 0;
  2131     0603  1181               	bcf	1,3	;volatile
  2132     0604                     l1028:
  2133                           
  2134                           ;Codigo_fuente.c: 192:     OPTION_REGbits.T0CS = 0;
  2135     0604  1281               	bcf	1,5	;volatile
  2136     0605                     l1030:
  2137                           
  2138                           ;Codigo_fuente.c: 194:     INTCONbits.GIE = 1;
  2139     0605  178B               	bsf	11,7	;volatile
  2140     0606                     l1032:
  2141                           
  2142                           ;Codigo_fuente.c: 195:     INTCONbits.T0IE = 1;
  2143     0606  168B               	bsf	11,5	;volatile
  2144     0607                     l1034:
  2145                           
  2146                           ;Codigo_fuente.c: 196:     TMR0 = 131;
  2147     0607  3083               	movlw	131
  2148     0608  1283               	bcf	3,5	;RP0=0, select bank0
  2149     0609  1303               	bcf	3,6	;RP1=0, select bank0
  2150     060A  0081               	movwf	1	;volatile
  2151     060B                     l74:
  2152     060B  0008               	return
  2153     060C                     __end_of_configurar_tmr0:
  2154                           
  2155                           	psect	text8
  2156     05DC                     __ptext8:	
  2157 ;; *************** function _configurar_hardware *****************
  2158 ;; Defined at:
  2159 ;;		line 175 in file "Codigo_fuente.c"
  2160 ;; Parameters:    Size  Location     Type
  2161 ;;		None
  2162 ;; Auto vars:     Size  Location     Type
  2163 ;;		None
  2164 ;; Return value:  Size  Location     Type
  2165 ;;                  1    wreg      void 
  2166 ;; Registers used:
  2167 ;;		wreg, status,2
  2168 ;; Tracked objects:
  2169 ;;		On entry : 0/0
  2170 ;;		On exit  : 0/0
  2171 ;;		Unchanged: 0/0
  2172 ;; Data sizes:     COMMON   BANK0   BANK1   BANK3   BANK2
  2173 ;;      Params:         0       0       0       0       0
  2174 ;;      Locals:         0       0       0       0       0
  2175 ;;      Temps:          0       0       0       0       0
  2176 ;;      Totals:         0       0       0       0       0
  2177 ;;Total ram usage:        0 bytes
  2178 ;; Hardware stack levels used: 1
  2179 ;; Hardware stack levels required when called: 1
  2180 ;; This function calls:
  2181 ;;		Nothing
  2182 ;; This function is called by:
  2183 ;;		_main
  2184 ;; This function uses a non-reentrant model
  2185 ;;
  2186                           
  2187     05DC                     _configurar_hardware:	
  2188                           ;psect for function _configurar_hardware
  2189                           
  2190     05DC                     l1010:	
  2191                           ;incstack = 0
  2192                           ; Regs used in _configurar_hardware: [wreg+status,2]
  2193                           
  2194                           
  2195                           ;Codigo_fuente.c: 177:     TRISA = 0x00;
  2196     05DC  1683               	bsf	3,5	;RP0=1, select bank1
  2197     05DD  1303               	bcf	3,6	;RP1=0, select bank1
  2198     05DE  0185               	clrf	5	;volatile
  2199                           
  2200                           ;Codigo_fuente.c: 178:     TRISD = 0x00;
  2201     05DF  0188               	clrf	8	;volatile
  2202                           
  2203                           ;Codigo_fuente.c: 179:     TRISC = 0X00;
  2204     05E0  0187               	clrf	7	;volatile
  2205     05E1                     l1012:
  2206                           
  2207                           ;Codigo_fuente.c: 180:     OPTION_REGbits.nRBPU = 0;
  2208     05E1  1381               	bcf	1,7	;volatile
  2209     05E2                     l1014:
  2210                           
  2211                           ;Codigo_fuente.c: 181:     TRISB = 0XFF;
  2212     05E2  30FF               	movlw	255
  2213     05E3  0086               	movwf	6	;volatile
  2214     05E4                     l1016:
  2215                           
  2216                           ;Codigo_fuente.c: 183:     PORTA = 0x07;
  2217     05E4  3007               	movlw	7
  2218     05E5  1283               	bcf	3,5	;RP0=0, select bank0
  2219     05E6  1303               	bcf	3,6	;RP1=0, select bank0
  2220     05E7  0085               	movwf	5	;volatile
  2221     05E8                     l1018:
  2222                           
  2223                           ;Codigo_fuente.c: 184:     PORTD = 0xFF;
  2224     05E8  30FF               	movlw	255
  2225     05E9  0088               	movwf	8	;volatile
  2226     05EA                     l1020:
  2227                           
  2228                           ;Codigo_fuente.c: 185:     PORTB = 0X00;
  2229     05EA  0186               	clrf	6	;volatile
  2230     05EB                     l1022:
  2231                           
  2232                           ;Codigo_fuente.c: 186:     PORTC = 0X00;
  2233     05EB  0187               	clrf	7	;volatile
  2234     05EC                     l71:
  2235     05EC  0008               	return
  2236     05ED                     __end_of_configurar_hardware:
  2237                           
  2238                           	psect	text9
  2239     016F                     __ptext9:	
  2240 ;; *************** function _botones *****************
  2241 ;; Defined at:
  2242 ;;		line 325 in file "Codigo_fuente.c"
  2243 ;; Parameters:    Size  Location     Type
  2244 ;;		None
  2245 ;; Auto vars:     Size  Location     Type
  2246 ;;		None
  2247 ;; Return value:  Size  Location     Type
  2248 ;;                  1    wreg      void 
  2249 ;; Registers used:
  2250 ;;		wreg, fsr0l, fsr0h, status,2, status,0, btemp+1, pclath, cstack
  2251 ;; Tracked objects:
  2252 ;;		On entry : 0/0
  2253 ;;		On exit  : 0/0
  2254 ;;		Unchanged: 0/0
  2255 ;; Data sizes:     COMMON   BANK0   BANK1   BANK3   BANK2
  2256 ;;      Params:         0       0       0       0       0
  2257 ;;      Locals:         0       0       0       0       0
  2258 ;;      Temps:          2       0       0       0       0
  2259 ;;      Totals:         2       0       0       0       0
  2260 ;;Total ram usage:        2 bytes
  2261 ;; Hardware stack levels used: 1
  2262 ;; Hardware stack levels required when called: 3
  2263 ;; This function calls:
  2264 ;;		_decremento_temporizador
  2265 ;;		_incremento_temporizador
  2266 ;;		_visualizar_display
  2267 ;; This function is called by:
  2268 ;;		_main
  2269 ;; This function uses a non-reentrant model
  2270 ;;
  2271                           
  2272     016F                     _botones:	
  2273                           ;psect for function _botones
  2274                           
  2275     016F                     l1540:	
  2276                           ;incstack = 0
  2277                           ; Regs used in _botones: [wreg-fsr0h+status,2+status,0+btemp+1+pclath+cstack]
  2278                           
  2279                           
  2280                           ;Codigo_fuente.c: 327:     if(PORTBbits.RB1 == 0 && on_off == 0){
  2281     016F  1283               	bcf	3,5	;RP0=0, select bank0
  2282     0170  1303               	bcf	3,6	;RP1=0, select bank0
  2283     0171  1886               	btfsc	6,1	;volatile
  2284     0172  2974               	goto	u1381
  2285     0173  2975               	goto	u1380
  2286     0174                     u1381:
  2287     0174  29B3               	goto	l156
  2288     0175                     u1380:
  2289     0175                     l1542:
  2290     0175  0858               	movf	_on_off,w
  2291     0176  1D03               	btfss	3,2
  2292     0177  2979               	goto	u1391
  2293     0178  297A               	goto	u1390
  2294     0179                     u1391:
  2295     0179  29B3               	goto	l156
  2296     017A                     u1390:
  2297     017A                     l1544:
  2298                           
  2299                           ;Codigo_fuente.c: 328:         _delay((unsigned long)((20)*(4000000/4000.0)));
  2300     017A  301A               	movlw	26
  2301     017B  00FB               	movwf	??_botones+1
  2302     017C  30F8               	movlw	248
  2303     017D  00FA               	movwf	??_botones
  2304     017E                     u1647:
  2305     017E  0BFA               	decfsz	??_botones,f
  2306     017F  297E               	goto	u1647
  2307     0180  0BFB               	decfsz	??_botones+1,f
  2308     0181  297E               	goto	u1647
  2309     0182  0000               	nop
  2310     0183                     l1546:
  2311                           
  2312                           ;Codigo_fuente.c: 329:         if(PORTBbits.RB1 == 0 && on_off == 0){
  2313     0183  1283               	bcf	3,5	;RP0=0, select bank0
  2314     0184  1303               	bcf	3,6	;RP1=0, select bank0
  2315     0185  1886               	btfsc	6,1	;volatile
  2316     0186  2988               	goto	u1401
  2317     0187  2989               	goto	u1400
  2318     0188                     u1401:
  2319     0188  29B3               	goto	l156
  2320     0189                     u1400:
  2321     0189                     l1548:
  2322     0189  0858               	movf	_on_off,w
  2323     018A  1D03               	btfss	3,2
  2324     018B  298D               	goto	u1411
  2325     018C  298E               	goto	u1410
  2326     018D                     u1411:
  2327     018D  29B3               	goto	l156
  2328     018E                     u1410:
  2329     018E                     l1550:
  2330                           
  2331                           ;Codigo_fuente.c: 330:             if(modo_proceso != modo_50w){
  2332     018E  3002               	movlw	2
  2333     018F  0654               	xorwf	_modo_proceso,w
  2334     0190  1903               	btfsc	3,2
  2335     0191  2993               	goto	u1421
  2336     0192  2994               	goto	u1420
  2337     0193                     u1421:
  2338     0193  2998               	goto	l1554
  2339     0194                     u1420:
  2340     0194                     l1552:
  2341                           
  2342                           ;Codigo_fuente.c: 331:                 modo_proceso = modo_35w;
  2343     0194  01D4               	clrf	_modo_proceso
  2344     0195  0AD4               	incf	_modo_proceso,f
  2345                           
  2346                           ;Codigo_fuente.c: 332:                 ms_state = MS_P35W;
  2347     0196  01D3               	clrf	_ms_state
  2348     0197  0AD3               	incf	_ms_state,f
  2349     0198                     l1554:
  2350                           
  2351                           ;Codigo_fuente.c: 334:             if(ms_tiempo != ms_tiempo_ninguno){
  2352     0198  0855               	movf	_ms_tiempo,w
  2353     0199  1903               	btfsc	3,2
  2354     019A  299C               	goto	u1431
  2355     019B  299D               	goto	u1430
  2356     019C                     u1431:
  2357     019C  29A8               	goto	l1560
  2358     019D                     u1430:
  2359     019D                     l1556:
  2360                           
  2361                           ;Codigo_fuente.c: 335:                     incremento_temporizador();
  2362     019D  120A  118A  24FC  120A  118A  	fcall	_incremento_temporizador
  2363     01A2  29A8               	goto	l1560
  2364     01A3                     l1558:
  2365     01A3  120A  118A  22CA  120A  118A  	fcall	_visualizar_display
  2366     01A8                     l1560:
  2367     01A8  1283               	bcf	3,5	;RP0=0, select bank0
  2368     01A9  1303               	bcf	3,6	;RP1=0, select bank0
  2369     01AA  1886               	btfsc	6,1	;volatile
  2370     01AB  29AD               	goto	u1441
  2371     01AC  29AE               	goto	u1440
  2372     01AD                     u1441:
  2373     01AD  29B3               	goto	l156
  2374     01AE                     u1440:
  2375     01AE                     l1562:
  2376     01AE  0858               	movf	_on_off,w
  2377     01AF  1903               	btfsc	3,2
  2378     01B0  29B2               	goto	u1451
  2379     01B1  29B3               	goto	u1450
  2380     01B2                     u1451:
  2381     01B2  29A3               	goto	l1558
  2382     01B3                     u1450:
  2383     01B3                     l156:	
  2384                           ;Codigo_fuente.c: 339:     }
  2385                           
  2386                           
  2387                           ;Codigo_fuente.c: 341:     if(PORTBbits.RB2 == 0 && on_off == 0){
  2388     01B3  1906               	btfsc	6,2	;volatile
  2389     01B4  29B6               	goto	u1461
  2390     01B5  29B7               	goto	u1460
  2391     01B6                     u1461:
  2392     01B6  29F4               	goto	l165
  2393     01B7                     u1460:
  2394     01B7                     l1564:
  2395     01B7  0858               	movf	_on_off,w
  2396     01B8  1D03               	btfss	3,2
  2397     01B9  29BB               	goto	u1471
  2398     01BA  29BC               	goto	u1470
  2399     01BB                     u1471:
  2400     01BB  29F4               	goto	l165
  2401     01BC                     u1470:
  2402     01BC                     l1566:
  2403                           
  2404                           ;Codigo_fuente.c: 342:         _delay((unsigned long)((20)*(4000000/4000.0)));
  2405     01BC  301A               	movlw	26
  2406     01BD  00FB               	movwf	??_botones+1
  2407     01BE  30F8               	movlw	248
  2408     01BF  00FA               	movwf	??_botones
  2409     01C0                     u1657:
  2410     01C0  0BFA               	decfsz	??_botones,f
  2411     01C1  29C0               	goto	u1657
  2412     01C2  0BFB               	decfsz	??_botones+1,f
  2413     01C3  29C0               	goto	u1657
  2414     01C4  0000               	nop
  2415     01C5                     l1568:
  2416                           
  2417                           ;Codigo_fuente.c: 343:         if(PORTBbits.RB2 == 0 && on_off == 0){
  2418     01C5  1283               	bcf	3,5	;RP0=0, select bank0
  2419     01C6  1303               	bcf	3,6	;RP1=0, select bank0
  2420     01C7  1906               	btfsc	6,2	;volatile
  2421     01C8  29CA               	goto	u1481
  2422     01C9  29CB               	goto	u1480
  2423     01CA                     u1481:
  2424     01CA  29F4               	goto	l165
  2425     01CB                     u1480:
  2426     01CB                     l1570:
  2427     01CB  0858               	movf	_on_off,w
  2428     01CC  1D03               	btfss	3,2
  2429     01CD  29CF               	goto	u1491
  2430     01CE  29D0               	goto	u1490
  2431     01CF                     u1491:
  2432     01CF  29F4               	goto	l165
  2433     01D0                     u1490:
  2434     01D0                     l1572:
  2435                           
  2436                           ;Codigo_fuente.c: 344:             if(modo_proceso != modo_35w){
  2437     01D0  0354               	decf	_modo_proceso,w
  2438     01D1  1903               	btfsc	3,2
  2439     01D2  29D4               	goto	u1501
  2440     01D3  29D5               	goto	u1500
  2441     01D4                     u1501:
  2442     01D4  29D9               	goto	l1576
  2443     01D5                     u1500:
  2444     01D5                     l1574:
  2445                           
  2446                           ;Codigo_fuente.c: 345:                 modo_proceso = modo_50w;
  2447     01D5  3002               	movlw	2
  2448     01D6  00D4               	movwf	_modo_proceso
  2449                           
  2450                           ;Codigo_fuente.c: 346:                 ms_state = MS_P50W;
  2451     01D7  3002               	movlw	2
  2452     01D8  00D3               	movwf	_ms_state
  2453     01D9                     l1576:
  2454                           
  2455                           ;Codigo_fuente.c: 348:             if(ms_tiempo != ms_tiempo_ninguno){
  2456     01D9  0855               	movf	_ms_tiempo,w
  2457     01DA  1903               	btfsc	3,2
  2458     01DB  29DD               	goto	u1511
  2459     01DC  29DE               	goto	u1510
  2460     01DD                     u1511:
  2461     01DD  29E9               	goto	l1582
  2462     01DE                     u1510:
  2463     01DE                     l1578:
  2464                           
  2465                           ;Codigo_fuente.c: 349:                 decremento_temporizador();
  2466     01DE  120A  118A  2525  120A  118A  	fcall	_decremento_temporizador
  2467     01E3  29E9               	goto	l1582
  2468     01E4                     l1580:
  2469     01E4  120A  118A  22CA  120A  118A  	fcall	_visualizar_display
  2470     01E9                     l1582:
  2471     01E9  1283               	bcf	3,5	;RP0=0, select bank0
  2472     01EA  1303               	bcf	3,6	;RP1=0, select bank0
  2473     01EB  1906               	btfsc	6,2	;volatile
  2474     01EC  29EE               	goto	u1521
  2475     01ED  29EF               	goto	u1520
  2476     01EE                     u1521:
  2477     01EE  29F4               	goto	l165
  2478     01EF                     u1520:
  2479     01EF                     l1584:
  2480     01EF  0858               	movf	_on_off,w
  2481     01F0  1903               	btfsc	3,2
  2482     01F1  29F3               	goto	u1531
  2483     01F2  29F4               	goto	u1530
  2484     01F3                     u1531:
  2485     01F3  29E4               	goto	l1580
  2486     01F4                     u1530:
  2487     01F4                     l165:	
  2488                           ;Codigo_fuente.c: 353:     }
  2489                           
  2490                           
  2491                           ;Codigo_fuente.c: 354:     if(PORTBbits.RB0 == 0 && modo_proceso != modo_ninguno ){
  2492     01F4  1806               	btfsc	6,0	;volatile
  2493     01F5  29F7               	goto	u1541
  2494     01F6  29F8               	goto	u1540
  2495     01F7                     u1541:
  2496     01F7  2A28               	goto	l181
  2497     01F8                     u1540:
  2498     01F8                     l1586:
  2499     01F8  0854               	movf	_modo_proceso,w
  2500     01F9  1903               	btfsc	3,2
  2501     01FA  29FC               	goto	u1551
  2502     01FB  29FD               	goto	u1550
  2503     01FC                     u1551:
  2504     01FC  2A28               	goto	l181
  2505     01FD                     u1550:
  2506     01FD                     l1588:
  2507                           
  2508                           ;Codigo_fuente.c: 355:         _delay((unsigned long)((20)*(4000000/4000.0)));
  2509     01FD  301A               	movlw	26
  2510     01FE  00FB               	movwf	??_botones+1
  2511     01FF  30F8               	movlw	248
  2512     0200  00FA               	movwf	??_botones
  2513     0201                     u1667:
  2514     0201  0BFA               	decfsz	??_botones,f
  2515     0202  2A01               	goto	u1667
  2516     0203  0BFB               	decfsz	??_botones+1,f
  2517     0204  2A01               	goto	u1667
  2518     0205  0000               	nop
  2519     0206                     l1590:
  2520                           
  2521                           ;Codigo_fuente.c: 356:         if(PORTBbits.RB0 == 0){
  2522     0206  1283               	bcf	3,5	;RP0=0, select bank0
  2523     0207  1303               	bcf	3,6	;RP1=0, select bank0
  2524     0208  1806               	btfsc	6,0	;volatile
  2525     0209  2A0B               	goto	u1561
  2526     020A  2A0C               	goto	u1560
  2527     020B                     u1561:
  2528     020B  2A28               	goto	l181
  2529     020C                     u1560:
  2530     020C                     l1592:
  2531                           
  2532                           ;Codigo_fuente.c: 357:             if(on_off == 0){
  2533     020C  0858               	movf	_on_off,w
  2534     020D  1D03               	btfss	3,2
  2535     020E  2A10               	goto	u1571
  2536     020F  2A11               	goto	u1570
  2537     0210                     u1571:
  2538     0210  2A14               	goto	l1596
  2539     0211                     u1570:
  2540     0211                     l1594:
  2541                           
  2542                           ;Codigo_fuente.c: 358:                 ms_state = MS_ON;
  2543     0211  3003               	movlw	3
  2544     0212  00D3               	movwf	_ms_state
  2545                           
  2546                           ;Codigo_fuente.c: 360:             }else{
  2547     0213  2A22               	goto	l1600
  2548     0214                     l1596:
  2549                           
  2550                           ;Codigo_fuente.c: 361:                 on_off = !on_off;
  2551     0214  0858               	movf	_on_off,w
  2552     0215  1903               	btfsc	3,2
  2553     0216  2A18               	goto	u1581
  2554     0217  2A1A               	goto	u1580
  2555     0218                     u1581:
  2556     0218  3001               	movlw	1
  2557     0219  2A1B               	goto	u1590
  2558     021A                     u1580:
  2559     021A  3000               	movlw	0
  2560     021B                     u1590:
  2561     021B  00D8               	movwf	_on_off
  2562     021C  2A22               	goto	l1600
  2563     021D                     l1598:
  2564     021D  120A  118A  22CA  120A  118A  	fcall	_visualizar_display
  2565     0222                     l1600:
  2566     0222  1283               	bcf	3,5	;RP0=0, select bank0
  2567     0223  1303               	bcf	3,6	;RP1=0, select bank0
  2568     0224  1C06               	btfss	6,0	;volatile
  2569     0225  2A27               	goto	u1601
  2570     0226  2A28               	goto	u1600
  2571     0227                     u1601:
  2572     0227  2A1D               	goto	l1598
  2573     0228                     u1600:
  2574     0228                     l181:
  2575     0228  0008               	return
  2576     0229                     __end_of_botones:
  2577                           
  2578                           	psect	text10
  2579     02CA                     __ptext10:	
  2580 ;; *************** function _visualizar_display *****************
  2581 ;; Defined at:
  2582 ;;		line 216 in file "Codigo_fuente.c"
  2583 ;; Parameters:    Size  Location     Type
  2584 ;;		None
  2585 ;; Auto vars:     Size  Location     Type
  2586 ;;  now             4    4[BANK0 ] unsigned long 
  2587 ;; Return value:  Size  Location     Type
  2588 ;;                  1    wreg      void 
  2589 ;; Registers used:
  2590 ;;		wreg, fsr0l, fsr0h, status,2, status,0, btemp+1, pclath, cstack
  2591 ;; Tracked objects:
  2592 ;;		On entry : 0/0
  2593 ;;		On exit  : 0/0
  2594 ;;		Unchanged: 0/0
  2595 ;; Data sizes:     COMMON   BANK0   BANK1   BANK3   BANK2
  2596 ;;      Params:         0       0       0       0       0
  2597 ;;      Locals:         0       4       0       0       0
  2598 ;;      Temps:          0       4       0       0       0
  2599 ;;      Totals:         0       8       0       0       0
  2600 ;;Total ram usage:        8 bytes
  2601 ;; Hardware stack levels used: 1
  2602 ;; Hardware stack levels required when called: 2
  2603 ;; This function calls:
  2604 ;;		___awmod
  2605 ;;		_millis
  2606 ;; This function is called by:
  2607 ;;		_botones
  2608 ;;		_verificar_fin_temporizador
  2609 ;;		_main
  2610 ;; This function uses a non-reentrant model
  2611 ;;
  2612                           
  2613     02CA                     _visualizar_display:	
  2614                           ;psect for function _visualizar_display
  2615                           
  2616     02CA                     l1294:	
  2617                           ;incstack = 0
  2618                           ; Regs used in _visualizar_display: [wreg-fsr0h+status,2+status,0+btemp+1+pclath+cstack]
  2619                           
  2620                           
  2621                           ;Codigo_fuente.c: 217:     static uint32_t last_mux = 0;;Codigo_fuente.c: 218:     uint3
      +                          2_t now = millis();
  2622     02CA  120A  118A  25B4  120A  118A  	fcall	_millis
  2623     02CF  0875               	movf	?_millis+3,w
  2624     02D0  1283               	bcf	3,5	;RP0=0, select bank0
  2625     02D1  1303               	bcf	3,6	;RP1=0, select bank0
  2626     02D2  00A7               	movwf	visualizar_display@now+3
  2627     02D3  0874               	movf	?_millis+2,w
  2628     02D4  00A6               	movwf	visualizar_display@now+2
  2629     02D5  0873               	movf	?_millis+1,w
  2630     02D6  00A5               	movwf	visualizar_display@now+1
  2631     02D7  0872               	movf	?_millis,w
  2632     02D8  00A4               	movwf	visualizar_display@now
  2633     02D9                     l1296:
  2634                           
  2635                           ;Codigo_fuente.c: 220:     if((now - last_mux) >= 5){
  2636     02D9  0824               	movf	visualizar_display@now,w
  2637     02DA  00A0               	movwf	??_visualizar_display
  2638     02DB  0825               	movf	visualizar_display@now+1,w
  2639     02DC  00A1               	movwf	??_visualizar_display+1
  2640     02DD  0826               	movf	visualizar_display@now+2,w
  2641     02DE  00A2               	movwf	??_visualizar_display+2
  2642     02DF  0827               	movf	visualizar_display@now+3,w
  2643     02E0  00A3               	movwf	??_visualizar_display+3
  2644     02E1  084A               	movf	visualizar_display@last_mux,w
  2645     02E2  02A0               	subwf	??_visualizar_display,f
  2646     02E3  084B               	movf	visualizar_display@last_mux+1,w
  2647     02E4  1C03               	skipc
  2648     02E5  0F4B               	incfsz	visualizar_display@last_mux+1,w
  2649     02E6  2AE8               	goto	u911
  2650     02E7  2AE9               	goto	u912
  2651     02E8                     u911:
  2652     02E8  02A1               	subwf	??_visualizar_display+1,f
  2653     02E9                     u912:
  2654     02E9  084C               	movf	visualizar_display@last_mux+2,w
  2655     02EA  1C03               	skipc
  2656     02EB  0F4C               	incfsz	visualizar_display@last_mux+2,w
  2657     02EC  2AEE               	goto	u913
  2658     02ED  2AEF               	goto	u914
  2659     02EE                     u913:
  2660     02EE  02A2               	subwf	??_visualizar_display+2,f
  2661     02EF                     u914:
  2662     02EF  084D               	movf	visualizar_display@last_mux+3,w
  2663     02F0  1C03               	skipc
  2664     02F1  0F4D               	incfsz	visualizar_display@last_mux+3,w
  2665     02F2  2AF4               	goto	u915
  2666     02F3  2AF5               	goto	u916
  2667     02F4                     u915:
  2668     02F4  02A3               	subwf	??_visualizar_display+3,f
  2669     02F5                     u916:
  2670     02F5  0823               	movf	??_visualizar_display+3,w
  2671     02F6  1D03               	btfss	3,2
  2672     02F7  2B06               	goto	u920
  2673     02F8  0822               	movf	??_visualizar_display+2,w
  2674     02F9  1D03               	btfss	3,2
  2675     02FA  2B06               	goto	u920
  2676     02FB  0821               	movf	??_visualizar_display+1,w
  2677     02FC  1D03               	btfss	3,2
  2678     02FD  2B06               	goto	u920
  2679     02FE  3005               	movlw	5
  2680     02FF  0220               	subwf	??_visualizar_display,w
  2681     0300  1D03               	skipz
  2682     0301  2B02               	goto	u923
  2683     0302                     u923:
  2684     0302  1C03               	btfss	3,0
  2685     0303  2B05               	goto	u921
  2686     0304  2B06               	goto	u920
  2687     0305                     u921:
  2688     0305  2B3F               	goto	l89
  2689     0306                     u920:
  2690     0306                     l1298:
  2691                           
  2692                           ;Codigo_fuente.c: 221:         last_mux = now;
  2693     0306  1283               	bcf	3,5	;RP0=0, select bank0
  2694     0307  1303               	bcf	3,6	;RP1=0, select bank0
  2695     0308  0827               	movf	visualizar_display@now+3,w
  2696     0309  00CD               	movwf	visualizar_display@last_mux+3
  2697     030A  0826               	movf	visualizar_display@now+2,w
  2698     030B  00CC               	movwf	visualizar_display@last_mux+2
  2699     030C  0825               	movf	visualizar_display@now+1,w
  2700     030D  00CB               	movwf	visualizar_display@last_mux+1
  2701     030E  0824               	movf	visualizar_display@now,w
  2702     030F  00CA               	movwf	visualizar_display@last_mux
  2703                           
  2704                           ;Codigo_fuente.c: 223:         PORTA = 0XFF;
  2705     0310  30FF               	movlw	255
  2706     0311  0085               	movwf	5	;volatile
  2707     0312                     l1300:
  2708                           
  2709                           ;Codigo_fuente.c: 225:         PORTD = DATOS[display_buffer[display_state]];
  2710     0312  0859               	movf	_display_state,w
  2711     0313  3E5A               	addlw	(low (_display_buffer| 0))& (0+255)
  2712     0314  0084               	movwf	4
  2713     0315  1383               	bcf	3,7	;select IRP bank0
  2714     0316  0800               	movf	0,w
  2715     0317  3E01               	addlw	low ((_DATOS-__stringbase)| (0+32768))
  2716     0318  0084               	movwf	4
  2717     0319  120A  118A  2479  120A  118A  	fcall	stringdir
  2718     031E  0088               	movwf	8	;volatile
  2719     031F                     l1302:
  2720                           
  2721                           ;Codigo_fuente.c: 227:         PORTA = (unsigned char)(~(1 << display_state));
  2722     031F  3001               	movlw	1
  2723     0320  00A0               	movwf	??_visualizar_display
  2724     0321  0A59               	incf	_display_state,w
  2725     0322  2B25               	goto	u934
  2726     0323                     u935:
  2727     0323  1003               	clrc
  2728     0324  0DA0               	rlf	??_visualizar_display,f
  2729     0325                     u934:
  2730     0325  3EFF               	addlw	-1
  2731     0326  1D03               	skipz
  2732     0327  2B23               	goto	u935
  2733     0328  0820               	movf	??_visualizar_display,w
  2734     0329  3AFF               	xorlw	255
  2735     032A  0085               	movwf	5	;volatile
  2736     032B                     l1304:
  2737                           
  2738                           ;Codigo_fuente.c: 229:         display_state = (display_state + 1) % 3;
  2739     032B  3003               	movlw	3
  2740     032C  00F2               	movwf	___awmod@divisor
  2741     032D  3000               	movlw	0
  2742     032E  00F3               	movwf	___awmod@divisor+1
  2743     032F  0859               	movf	_display_state,w
  2744     0330  3E01               	addlw	1
  2745     0331  00F4               	movwf	___awmod@dividend
  2746     0332  3000               	movlw	0
  2747     0333  1803               	skipnc
  2748     0334  3001               	movlw	1
  2749     0335  00F5               	movwf	___awmod@dividend+1
  2750     0336  120A  118A  2420  120A  118A  	fcall	___awmod
  2751     033B  0872               	movf	?___awmod,w
  2752     033C  1283               	bcf	3,5	;RP0=0, select bank0
  2753     033D  1303               	bcf	3,6	;RP1=0, select bank0
  2754     033E  00D9               	movwf	_display_state
  2755     033F                     l89:
  2756     033F  0008               	return
  2757     0340                     __end_of_visualizar_display:
  2758                           
  2759                           	psect	text11
  2760     05B4                     __ptext11:	
  2761 ;; *************** function _millis *****************
  2762 ;; Defined at:
  2763 ;;		line 207 in file "Codigo_fuente.c"
  2764 ;; Parameters:    Size  Location     Type
  2765 ;;		None
  2766 ;; Auto vars:     Size  Location     Type
  2767 ;;  m               4    6[COMMON] unsigned long 
  2768 ;; Return value:  Size  Location     Type
  2769 ;;                  4    2[COMMON] unsigned long 
  2770 ;; Registers used:
  2771 ;;		wreg
  2772 ;; Tracked objects:
  2773 ;;		On entry : 0/0
  2774 ;;		On exit  : 0/0
  2775 ;;		Unchanged: 0/0
  2776 ;; Data sizes:     COMMON   BANK0   BANK1   BANK3   BANK2
  2777 ;;      Params:         4       0       0       0       0
  2778 ;;      Locals:         4       0       0       0       0
  2779 ;;      Temps:          0       0       0       0       0
  2780 ;;      Totals:         8       0       0       0       0
  2781 ;;Total ram usage:        8 bytes
  2782 ;; Hardware stack levels used: 1
  2783 ;; Hardware stack levels required when called: 1
  2784 ;; This function calls:
  2785 ;;		Nothing
  2786 ;; This function is called by:
  2787 ;;		_visualizar_display
  2788 ;;		_diferentes_mensajes
  2789 ;;		_efecto_titilar
  2790 ;;		_actualizar_temporizador
  2791 ;;		_verificar_fin_temporizador
  2792 ;; This function uses a non-reentrant model
  2793 ;;
  2794                           
  2795     05B4                     _millis:	
  2796                           ;psect for function _millis
  2797                           
  2798     05B4                     l1248:	
  2799                           ;incstack = 0
  2800                           ; Regs used in _millis: [wreg]
  2801                           
  2802                           
  2803                           ;Codigo_fuente.c: 208:     uint32_t m;;Codigo_fuente.c: 209:     INTCONbits.GIE = 0;
  2804     05B4  138B               	bcf	11,7	;volatile
  2805     05B5                     l1250:
  2806                           
  2807                           ;Codigo_fuente.c: 210:     m = milisegundos;
  2808     05B5  1283               	bcf	3,5	;RP0=0, select bank0
  2809     05B6  1303               	bcf	3,6	;RP1=0, select bank0
  2810     05B7  0851               	movf	_milisegundos+3,w
  2811     05B8  00F9               	movwf	millis@m+3
  2812     05B9  0850               	movf	_milisegundos+2,w
  2813     05BA  00F8               	movwf	millis@m+2
  2814     05BB  084F               	movf	_milisegundos+1,w
  2815     05BC  00F7               	movwf	millis@m+1
  2816     05BD  084E               	movf	_milisegundos,w
  2817     05BE  00F6               	movwf	millis@m
  2818     05BF                     l1252:
  2819                           
  2820                           ;Codigo_fuente.c: 211:     INTCONbits.GIE = 1;
  2821     05BF  178B               	bsf	11,7	;volatile
  2822                           
  2823                           ;Codigo_fuente.c: 212:     return m;
  2824     05C0  0879               	movf	millis@m+3,w
  2825     05C1  00F5               	movwf	?_millis+3
  2826     05C2  0878               	movf	millis@m+2,w
  2827     05C3  00F4               	movwf	?_millis+2
  2828     05C4  0877               	movf	millis@m+1,w
  2829     05C5  00F3               	movwf	?_millis+1
  2830     05C6  0876               	movf	millis@m,w
  2831     05C7  00F2               	movwf	?_millis
  2832     05C8                     l83:
  2833     05C8  0008               	return
  2834     05C9                     __end_of_millis:
  2835                           
  2836                           	psect	text12
  2837     0420                     __ptext12:	
  2838 ;; *************** function ___awmod *****************
  2839 ;; Defined at:
  2840 ;;		line 5 in file "C:\Program Files\Microchip\xc8\v2.46\pic\sources\c99\common\awmod.c"
  2841 ;; Parameters:    Size  Location     Type
  2842 ;;  divisor         2    2[COMMON] int 
  2843 ;;  dividend        2    4[COMMON] int 
  2844 ;; Auto vars:     Size  Location     Type
  2845 ;;  sign            1    7[COMMON] unsigned char 
  2846 ;;  counter         1    6[COMMON] unsigned char 
  2847 ;; Return value:  Size  Location     Type
  2848 ;;                  2    2[COMMON] int 
  2849 ;; Registers used:
  2850 ;;		wreg, status,2, status,0, btemp+1
  2851 ;; Tracked objects:
  2852 ;;		On entry : 0/0
  2853 ;;		On exit  : 0/0
  2854 ;;		Unchanged: 0/0
  2855 ;; Data sizes:     COMMON   BANK0   BANK1   BANK3   BANK2
  2856 ;;      Params:         4       0       0       0       0
  2857 ;;      Locals:         2       0       0       0       0
  2858 ;;      Temps:          0       0       0       0       0
  2859 ;;      Totals:         6       0       0       0       0
  2860 ;;Total ram usage:        6 bytes
  2861 ;; Hardware stack levels used: 1
  2862 ;; Hardware stack levels required when called: 1
  2863 ;; This function calls:
  2864 ;;		Nothing
  2865 ;; This function is called by:
  2866 ;;		_visualizar_display
  2867 ;;		_diferentes_mensajes
  2868 ;; This function uses a non-reentrant model
  2869 ;;
  2870                           
  2871     0420                     ___awmod:	
  2872                           ;psect for function ___awmod
  2873                           
  2874     0420                     l1256:	
  2875                           ;incstack = 0
  2876                           ; Regs used in ___awmod: [wreg+status,2+status,0+btemp+1]
  2877                           
  2878     0420  01F7               	clrf	___awmod@sign
  2879     0421                     l1258:
  2880     0421  1FF5               	btfss	___awmod@dividend+1,7
  2881     0422  2C24               	goto	u821
  2882     0423  2C25               	goto	u820
  2883     0424                     u821:
  2884     0424  2C2C               	goto	l1264
  2885     0425                     u820:
  2886     0425                     l1260:
  2887     0425  09F4               	comf	___awmod@dividend,f
  2888     0426  09F5               	comf	___awmod@dividend+1,f
  2889     0427  0AF4               	incf	___awmod@dividend,f
  2890     0428  1903               	skipnz
  2891     0429  0AF5               	incf	___awmod@dividend+1,f
  2892     042A                     l1262:
  2893     042A  01F7               	clrf	___awmod@sign
  2894     042B  0AF7               	incf	___awmod@sign,f
  2895     042C                     l1264:
  2896     042C  1FF3               	btfss	___awmod@divisor+1,7
  2897     042D  2C2F               	goto	u831
  2898     042E  2C30               	goto	u830
  2899     042F                     u831:
  2900     042F  2C35               	goto	l1268
  2901     0430                     u830:
  2902     0430                     l1266:
  2903     0430  09F2               	comf	___awmod@divisor,f
  2904     0431  09F3               	comf	___awmod@divisor+1,f
  2905     0432  0AF2               	incf	___awmod@divisor,f
  2906     0433  1903               	skipnz
  2907     0434  0AF3               	incf	___awmod@divisor+1,f
  2908     0435                     l1268:
  2909     0435  0872               	movf	___awmod@divisor,w
  2910     0436  0473               	iorwf	___awmod@divisor+1,w
  2911     0437  1903               	btfsc	3,2
  2912     0438  2C3A               	goto	u841
  2913     0439  2C3B               	goto	u840
  2914     043A                     u841:
  2915     043A  2C6A               	goto	l1286
  2916     043B                     u840:
  2917     043B                     l1270:
  2918     043B  01F6               	clrf	___awmod@counter
  2919     043C  0AF6               	incf	___awmod@counter,f
  2920     043D  2C49               	goto	l1276
  2921     043E                     l1272:
  2922     043E  3001               	movlw	1
  2923     043F                     u855:
  2924     043F  1003               	clrc
  2925     0440  0DF2               	rlf	___awmod@divisor,f
  2926     0441  0DF3               	rlf	___awmod@divisor+1,f
  2927     0442  3EFF               	addlw	-1
  2928     0443  1D03               	skipz
  2929     0444  2C3F               	goto	u855
  2930     0445                     l1274:
  2931     0445  3001               	movlw	1
  2932     0446  00FF               	movwf	btemp+1
  2933     0447  087F               	movf	btemp+1,w
  2934     0448  07F6               	addwf	___awmod@counter,f
  2935     0449                     l1276:
  2936     0449  1FF3               	btfss	___awmod@divisor+1,7
  2937     044A  2C4C               	goto	u861
  2938     044B  2C4D               	goto	u860
  2939     044C                     u861:
  2940     044C  2C3E               	goto	l1272
  2941     044D                     u860:
  2942     044D                     l1278:
  2943     044D  0873               	movf	___awmod@divisor+1,w
  2944     044E  0275               	subwf	___awmod@dividend+1,w
  2945     044F  1D03               	skipz
  2946     0450  2C53               	goto	u875
  2947     0451  0872               	movf	___awmod@divisor,w
  2948     0452  0274               	subwf	___awmod@dividend,w
  2949     0453                     u875:
  2950     0453  1C03               	skipc
  2951     0454  2C56               	goto	u871
  2952     0455  2C57               	goto	u870
  2953     0456                     u871:
  2954     0456  2C5D               	goto	l1282
  2955     0457                     u870:
  2956     0457                     l1280:
  2957     0457  0872               	movf	___awmod@divisor,w
  2958     0458  02F4               	subwf	___awmod@dividend,f
  2959     0459  0873               	movf	___awmod@divisor+1,w
  2960     045A  1C03               	skipc
  2961     045B  03F5               	decf	___awmod@dividend+1,f
  2962     045C  02F5               	subwf	___awmod@dividend+1,f
  2963     045D                     l1282:
  2964     045D  3001               	movlw	1
  2965     045E                     u885:
  2966     045E  1003               	clrc
  2967     045F  0CF3               	rrf	___awmod@divisor+1,f
  2968     0460  0CF2               	rrf	___awmod@divisor,f
  2969     0461  3EFF               	addlw	-1
  2970     0462  1D03               	skipz
  2971     0463  2C5E               	goto	u885
  2972     0464                     l1284:
  2973     0464  3001               	movlw	1
  2974     0465  02F6               	subwf	___awmod@counter,f
  2975     0466  1D03               	btfss	3,2
  2976     0467  2C69               	goto	u891
  2977     0468  2C6A               	goto	u890
  2978     0469                     u891:
  2979     0469  2C4D               	goto	l1278
  2980     046A                     u890:
  2981     046A                     l1286:
  2982     046A  0877               	movf	___awmod@sign,w
  2983     046B  1903               	btfsc	3,2
  2984     046C  2C6E               	goto	u901
  2985     046D  2C6F               	goto	u900
  2986     046E                     u901:
  2987     046E  2C74               	goto	l1290
  2988     046F                     u900:
  2989     046F                     l1288:
  2990     046F  09F4               	comf	___awmod@dividend,f
  2991     0470  09F5               	comf	___awmod@dividend+1,f
  2992     0471  0AF4               	incf	___awmod@dividend,f
  2993     0472  1903               	skipnz
  2994     0473  0AF5               	incf	___awmod@dividend+1,f
  2995     0474                     l1290:
  2996     0474  0875               	movf	___awmod@dividend+1,w
  2997     0475  00F3               	movwf	?___awmod+1
  2998     0476  0874               	movf	___awmod@dividend,w
  2999     0477  00F2               	movwf	?___awmod
  3000     0478                     l504:
  3001     0478  0008               	return
  3002     0479                     __end_of___awmod:
  3003                           
  3004                           	psect	text13
  3005     04FC                     __ptext13:	
  3006 ;; *************** function _incremento_temporizador *****************
  3007 ;; Defined at:
  3008 ;;		line 460 in file "Codigo_fuente.c"
  3009 ;; Parameters:    Size  Location     Type
  3010 ;;		None
  3011 ;; Auto vars:     Size  Location     Type
  3012 ;;		None
  3013 ;; Return value:  Size  Location     Type
  3014 ;;                  1    wreg      void 
  3015 ;; Registers used:
  3016 ;;		wreg, status,2, status,0, btemp+1, pclath, cstack
  3017 ;; Tracked objects:
  3018 ;;		On entry : 0/0
  3019 ;;		On exit  : 0/0
  3020 ;;		Unchanged: 0/0
  3021 ;; Data sizes:     COMMON   BANK0   BANK1   BANK3   BANK2
  3022 ;;      Params:         0       0       0       0       0
  3023 ;;      Locals:         0       0       0       0       0
  3024 ;;      Temps:          0       0       0       0       0
  3025 ;;      Totals:         0       0       0       0       0
  3026 ;;Total ram usage:        0 bytes
  3027 ;; Hardware stack levels used: 1
  3028 ;; Hardware stack levels required when called: 2
  3029 ;; This function calls:
  3030 ;;		_convertir_tiempo_a_display
  3031 ;; This function is called by:
  3032 ;;		_botones
  3033 ;; This function uses a non-reentrant model
  3034 ;;
  3035                           
  3036     04FC                     _incremento_temporizador:	
  3037                           ;psect for function _incremento_temporizador
  3038                           
  3039     04FC                     l1392:	
  3040                           ;incstack = 0
  3041                           ; Regs used in _incremento_temporizador: [wreg+status,2+status,0+btemp+1+pclath+cstack]
  3042                           
  3043                           
  3044                           ;Codigo_fuente.c: 461:     unidades ++;
  3045     04FC  3001               	movlw	1
  3046     04FD  00FF               	movwf	btemp+1
  3047     04FE  087F               	movf	btemp+1,w
  3048     04FF  1283               	bcf	3,5	;RP0=0, select bank0
  3049     0500  1303               	bcf	3,6	;RP1=0, select bank0
  3050     0501  07D6               	addwf	_unidades,f
  3051     0502                     l1394:
  3052                           
  3053                           ;Codigo_fuente.c: 462:     if(unidades >= 10){
  3054     0502  300A               	movlw	10
  3055     0503  0256               	subwf	_unidades,w
  3056     0504  1C03               	skipc
  3057     0505  2D07               	goto	u1101
  3058     0506  2D08               	goto	u1100
  3059     0507                     u1101:
  3060     0507  2D1F               	goto	l1410
  3061     0508                     u1100:
  3062     0508                     l1396:
  3063                           
  3064                           ;Codigo_fuente.c: 463:         unidades = 0;
  3065     0508  01D6               	clrf	_unidades
  3066     0509                     l1398:
  3067                           
  3068                           ;Codigo_fuente.c: 464:         decenas ++;
  3069     0509  3001               	movlw	1
  3070     050A  00FF               	movwf	btemp+1
  3071     050B  087F               	movf	btemp+1,w
  3072     050C  07DF               	addwf	_decenas,f
  3073     050D                     l1400:
  3074                           
  3075                           ;Codigo_fuente.c: 465:         if(decenas >= 10){
  3076     050D  300A               	movlw	10
  3077     050E  025F               	subwf	_decenas,w
  3078     050F  1C03               	skipc
  3079     0510  2D12               	goto	u1111
  3080     0511  2D13               	goto	u1110
  3081     0512                     u1111:
  3082     0512  2D1F               	goto	l1410
  3083     0513                     u1110:
  3084     0513                     l1402:
  3085                           
  3086                           ;Codigo_fuente.c: 466:             decenas = 0;
  3087     0513  01DF               	clrf	_decenas
  3088     0514                     l1404:
  3089                           
  3090                           ;Codigo_fuente.c: 467:             centenas ++;
  3091     0514  3001               	movlw	1
  3092     0515  00FF               	movwf	btemp+1
  3093     0516  087F               	movf	btemp+1,w
  3094     0517  07DE               	addwf	_centenas,f
  3095     0518                     l1406:
  3096                           
  3097                           ;Codigo_fuente.c: 468:             if(centenas >= 10){
  3098     0518  300A               	movlw	10
  3099     0519  025E               	subwf	_centenas,w
  3100     051A  1C03               	skipc
  3101     051B  2D1D               	goto	u1121
  3102     051C  2D1E               	goto	u1120
  3103     051D                     u1121:
  3104     051D  2D1F               	goto	l1410
  3105     051E                     u1120:
  3106     051E                     l1408:
  3107                           
  3108                           ;Codigo_fuente.c: 469:                 centenas = 0;
  3109     051E  01DE               	clrf	_centenas
  3110     051F                     l1410:
  3111                           
  3112                           ;Codigo_fuente.c: 474:     convertir_tiempo_a_display();
  3113     051F  120A  118A  260C  120A  118A  	fcall	_convertir_tiempo_a_display
  3114     0524                     l232:
  3115     0524  0008               	return
  3116     0525                     __end_of_incremento_temporizador:
  3117                           
  3118                           	psect	text14
  3119     0525                     __ptext14:	
  3120 ;; *************** function _decremento_temporizador *****************
  3121 ;; Defined at:
  3122 ;;		line 476 in file "Codigo_fuente.c"
  3123 ;; Parameters:    Size  Location     Type
  3124 ;;		None
  3125 ;; Auto vars:     Size  Location     Type
  3126 ;;		None
  3127 ;; Return value:  Size  Location     Type
  3128 ;;                  1    wreg      void 
  3129 ;; Registers used:
  3130 ;;		wreg, status,2, status,0, pclath, cstack
  3131 ;; Tracked objects:
  3132 ;;		On entry : 0/0
  3133 ;;		On exit  : 0/0
  3134 ;;		Unchanged: 0/0
  3135 ;; Data sizes:     COMMON   BANK0   BANK1   BANK3   BANK2
  3136 ;;      Params:         0       0       0       0       0
  3137 ;;      Locals:         0       0       0       0       0
  3138 ;;      Temps:          0       0       0       0       0
  3139 ;;      Totals:         0       0       0       0       0
  3140 ;;Total ram usage:        0 bytes
  3141 ;; Hardware stack levels used: 1
  3142 ;; Hardware stack levels required when called: 2
  3143 ;; This function calls:
  3144 ;;		_condiciones_iniciales
  3145 ;;		_convertir_tiempo_a_display
  3146 ;; This function is called by:
  3147 ;;		_botones
  3148 ;; This function uses a non-reentrant model
  3149 ;;
  3150                           
  3151     0525                     _decremento_temporizador:	
  3152                           ;psect for function _decremento_temporizador
  3153                           
  3154     0525                     l1412:	
  3155                           ;incstack = 0
  3156                           ; Regs used in _decremento_temporizador: [wreg+status,2+status,0+pclath+cstack]
  3157                           
  3158                           
  3159                           ;Codigo_fuente.c: 478:     if (unidades > 0) {
  3160     0525  1283               	bcf	3,5	;RP0=0, select bank0
  3161     0526  1303               	bcf	3,6	;RP1=0, select bank0
  3162     0527  0856               	movf	_unidades,w
  3163     0528  1903               	btfsc	3,2
  3164     0529  2D2B               	goto	u1131
  3165     052A  2D2C               	goto	u1130
  3166     052B                     u1131:
  3167     052B  2D2F               	goto	l1416
  3168     052C                     u1130:
  3169     052C                     l1414:
  3170                           
  3171                           ;Codigo_fuente.c: 479:         unidades--;
  3172     052C  3001               	movlw	1
  3173     052D  02D6               	subwf	_unidades,f
  3174                           
  3175                           ;Codigo_fuente.c: 480:     } else {
  3176     052E  2D48               	goto	l236
  3177     052F                     l1416:
  3178                           
  3179                           ;Codigo_fuente.c: 482:         if (decenas > 0) {
  3180     052F  085F               	movf	_decenas,w
  3181     0530  1903               	btfsc	3,2
  3182     0531  2D33               	goto	u1141
  3183     0532  2D34               	goto	u1140
  3184     0533                     u1141:
  3185     0533  2D39               	goto	l1422
  3186     0534                     u1140:
  3187     0534                     l1418:
  3188                           
  3189                           ;Codigo_fuente.c: 483:             decenas--;
  3190     0534  3001               	movlw	1
  3191     0535  02DF               	subwf	_decenas,f
  3192     0536                     l1420:
  3193                           
  3194                           ;Codigo_fuente.c: 484:             unidades = 9;
  3195     0536  3009               	movlw	9
  3196     0537  00D6               	movwf	_unidades
  3197                           
  3198                           ;Codigo_fuente.c: 485:         } else {
  3199     0538  2D48               	goto	l236
  3200     0539                     l1422:
  3201                           
  3202                           ;Codigo_fuente.c: 486:             if(centenas > 0){
  3203     0539  085E               	movf	_centenas,w
  3204     053A  1903               	btfsc	3,2
  3205     053B  2D3D               	goto	u1151
  3206     053C  2D3E               	goto	u1150
  3207     053D                     u1151:
  3208     053D  2D43               	goto	l1428
  3209     053E                     u1150:
  3210     053E                     l1424:
  3211                           
  3212                           ;Codigo_fuente.c: 487:                 centenas --;
  3213     053E  3001               	movlw	1
  3214     053F  02DE               	subwf	_centenas,f
  3215     0540                     l1426:
  3216                           
  3217                           ;Codigo_fuente.c: 488:                 decenas = 9;
  3218     0540  3009               	movlw	9
  3219     0541  00DF               	movwf	_decenas
  3220                           
  3221                           ;Codigo_fuente.c: 489:             }else{
  3222     0542  2D48               	goto	l236
  3223     0543                     l1428:
  3224                           
  3225                           ;Codigo_fuente.c: 490:                 condiciones_iniciales();
  3226     0543  120A  118A  25ED  120A  118A  	fcall	_condiciones_iniciales
  3227     0548                     l236:	
  3228                           ;Codigo_fuente.c: 493:     }
  3229                           
  3230                           
  3231                           ;Codigo_fuente.c: 495:     convertir_tiempo_a_display();
  3232     0548  120A  118A  260C  120A  118A  	fcall	_convertir_tiempo_a_display
  3233     054D                     l241:
  3234     054D  0008               	return
  3235     054E                     __end_of_decremento_temporizador:
  3236                           
  3237                           	psect	text15
  3238     060C                     __ptext15:	
  3239 ;; *************** function _convertir_tiempo_a_display *****************
  3240 ;; Defined at:
  3241 ;;		line 425 in file "Codigo_fuente.c"
  3242 ;; Parameters:    Size  Location     Type
  3243 ;;		None
  3244 ;; Auto vars:     Size  Location     Type
  3245 ;;		None
  3246 ;; Return value:  Size  Location     Type
  3247 ;;                  1    wreg      void 
  3248 ;; Registers used:
  3249 ;;		wreg
  3250 ;; Tracked objects:
  3251 ;;		On entry : 0/0
  3252 ;;		On exit  : 0/0
  3253 ;;		Unchanged: 0/0
  3254 ;; Data sizes:     COMMON   BANK0   BANK1   BANK3   BANK2
  3255 ;;      Params:         0       0       0       0       0
  3256 ;;      Locals:         0       0       0       0       0
  3257 ;;      Temps:          0       0       0       0       0
  3258 ;;      Totals:         0       0       0       0       0
  3259 ;;Total ram usage:        0 bytes
  3260 ;; Hardware stack levels used: 1
  3261 ;; Hardware stack levels required when called: 1
  3262 ;; This function calls:
  3263 ;;		Nothing
  3264 ;; This function is called by:
  3265 ;;		_diferentes_mensajes
  3266 ;;		_actualizar_temporizador
  3267 ;;		_incremento_temporizador
  3268 ;;		_decremento_temporizador
  3269 ;; This function uses a non-reentrant model
  3270 ;;
  3271                           
  3272     060C                     _convertir_tiempo_a_display:	
  3273                           ;psect for function _convertir_tiempo_a_display
  3274                           
  3275     060C                     l1336:	
  3276                           ;incstack = 0
  3277                           ; Regs used in _convertir_tiempo_a_display: [wreg]
  3278                           
  3279                           
  3280                           ;Codigo_fuente.c: 427:     display_buffer[0] = centenas;
  3281     060C  1283               	bcf	3,5	;RP0=0, select bank0
  3282     060D  1303               	bcf	3,6	;RP1=0, select bank0
  3283     060E  085E               	movf	_centenas,w
  3284     060F  00DA               	movwf	_display_buffer
  3285                           
  3286                           ;Codigo_fuente.c: 428:     display_buffer[1] = decenas;
  3287     0610  085F               	movf	_decenas,w
  3288     0611  00DB               	movwf	_display_buffer+1
  3289                           
  3290                           ;Codigo_fuente.c: 431:     display_buffer[2] = unidades;
  3291     0612  0856               	movf	_unidades,w
  3292     0613  00DC               	movwf	_display_buffer+2
  3293     0614                     l206:
  3294     0614  0008               	return
  3295     0615                     __end_of_convertir_tiempo_a_display:
  3296                           
  3297                           	psect	text16
  3298     05ED                     __ptext16:	
  3299 ;; *************** function _condiciones_iniciales *****************
  3300 ;; Defined at:
  3301 ;;		line 498 in file "Codigo_fuente.c"
  3302 ;; Parameters:    Size  Location     Type
  3303 ;;		None
  3304 ;; Auto vars:     Size  Location     Type
  3305 ;;		None
  3306 ;; Return value:  Size  Location     Type
  3307 ;;                  1    wreg      void 
  3308 ;; Registers used:
  3309 ;;		wreg, status,2
  3310 ;; Tracked objects:
  3311 ;;		On entry : 0/0
  3312 ;;		On exit  : 0/0
  3313 ;;		Unchanged: 0/0
  3314 ;; Data sizes:     COMMON   BANK0   BANK1   BANK3   BANK2
  3315 ;;      Params:         0       0       0       0       0
  3316 ;;      Locals:         0       0       0       0       0
  3317 ;;      Temps:          0       0       0       0       0
  3318 ;;      Totals:         0       0       0       0       0
  3319 ;;Total ram usage:        0 bytes
  3320 ;; Hardware stack levels used: 1
  3321 ;; Hardware stack levels required when called: 1
  3322 ;; This function calls:
  3323 ;;		Nothing
  3324 ;; This function is called by:
  3325 ;;		_verificar_fin_temporizador
  3326 ;;		_decremento_temporizador
  3327 ;; This function uses a non-reentrant model
  3328 ;;
  3329                           
  3330     05ED                     _condiciones_iniciales:	
  3331                           ;psect for function _condiciones_iniciales
  3332                           
  3333     05ED                     l1324:	
  3334                           ;incstack = 0
  3335                           ; Regs used in _condiciones_iniciales: [wreg+status,2]
  3336                           
  3337                           
  3338                           ;Codigo_fuente.c: 499:     PORTC = 0X00;
  3339     05ED  1283               	bcf	3,5	;RP0=0, select bank0
  3340     05EE  1303               	bcf	3,6	;RP1=0, select bank0
  3341     05EF  0187               	clrf	7	;volatile
  3342                           
  3343                           ;Codigo_fuente.c: 500:     on_off = 0;
  3344     05F0  01D8               	clrf	_on_off
  3345                           
  3346                           ;Codigo_fuente.c: 501:     ms_tiempo = ms_tiempo_ninguno;
  3347     05F1  01D5               	clrf	_ms_tiempo
  3348                           
  3349                           ;Codigo_fuente.c: 502:     modo_proceso = modo_ninguno;
  3350     05F2  01D4               	clrf	_modo_proceso
  3351     05F3                     l1326:
  3352                           
  3353                           ;Codigo_fuente.c: 503:     PORTCbits.RC0 = 0;
  3354     05F3  1007               	bcf	7,0	;volatile
  3355     05F4                     l1328:
  3356                           
  3357                           ;Codigo_fuente.c: 504:     PORTCbits.RC1 = 0;
  3358     05F4  1087               	bcf	7,1	;volatile
  3359     05F5                     l1330:
  3360                           
  3361                           ;Codigo_fuente.c: 505:     temporizador_activo = 1;
  3362     05F5  01E0               	clrf	_temporizador_activo
  3363     05F6  0AE0               	incf	_temporizador_activo,f
  3364                           
  3365                           ;Codigo_fuente.c: 506:     unidades = 0;
  3366     05F7  01D6               	clrf	_unidades
  3367     05F8                     l1332:
  3368                           
  3369                           ;Codigo_fuente.c: 507:     decenas = 8;
  3370     05F8  3008               	movlw	8
  3371     05F9  00DF               	movwf	_decenas
  3372     05FA                     l1334:
  3373                           
  3374                           ;Codigo_fuente.c: 508:     centenas = 1;
  3375     05FA  01DE               	clrf	_centenas
  3376     05FB  0ADE               	incf	_centenas,f
  3377     05FC                     l244:
  3378     05FC  0008               	return
  3379     05FD                     __end_of_condiciones_iniciales:
  3380                           
  3381                           	psect	text17
  3382     0596                     __ptext17:	
  3383 ;; *************** function _INT_TMR0 *****************
  3384 ;; Defined at:
  3385 ;;		line 198 in file "Codigo_fuente.c"
  3386 ;; Parameters:    Size  Location     Type
  3387 ;;		None
  3388 ;; Auto vars:     Size  Location     Type
  3389 ;;		None
  3390 ;; Return value:  Size  Location     Type
  3391 ;;                  1    wreg      void 
  3392 ;; Registers used:
  3393 ;;		wreg
  3394 ;; Tracked objects:
  3395 ;;		On entry : 0/0
  3396 ;;		On exit  : 0/0
  3397 ;;		Unchanged: 0/0
  3398 ;; Data sizes:     COMMON   BANK0   BANK1   BANK3   BANK2
  3399 ;;      Params:         0       0       0       0       0
  3400 ;;      Locals:         0       0       0       0       0
  3401 ;;      Temps:          2       0       0       0       0
  3402 ;;      Totals:         2       0       0       0       0
  3403 ;;Total ram usage:        2 bytes
  3404 ;; Hardware stack levels used: 1
  3405 ;; This function calls:
  3406 ;;		Nothing
  3407 ;; This function is called by:
  3408 ;;		Interrupt level 1
  3409 ;; This function uses a non-reentrant model
  3410 ;;
  3411                           
  3412     0596                     _INT_TMR0:	
  3413                           ;psect for function _INT_TMR0
  3414                           
  3415     0596                     i1l1618:
  3416                           
  3417                           ;Codigo_fuente.c: 199:     if(INTCONbits.T0IF == 1){
  3418     0596  1D0B               	btfss	11,2	;volatile
  3419     0597  2D99               	goto	u162_21
  3420     0598  2D9A               	goto	u162_20
  3421     0599                     u162_21:
  3422     0599  2DAD               	goto	i1l80
  3423     059A                     u162_20:
  3424     059A                     i1l1620:
  3425                           
  3426                           ;Codigo_fuente.c: 200:         INTCONbits.T0IF = 0;
  3427     059A  110B               	bcf	11,2	;volatile
  3428     059B                     i1l1622:
  3429                           
  3430                           ;Codigo_fuente.c: 201:         TMR0 = 131;
  3431     059B  3083               	movlw	131
  3432     059C  1283               	bcf	3,5	;RP0=0, select bank0
  3433     059D  1303               	bcf	3,6	;RP1=0, select bank0
  3434     059E  0081               	movwf	1	;volatile
  3435                           
  3436                           ;Codigo_fuente.c: 202:         milisegundos++;
  3437     059F  3001               	movlw	1
  3438     05A0  07CE               	addwf	_milisegundos,f
  3439     05A1  3000               	movlw	0
  3440     05A2  1803               	skipnc
  3441     05A3  3001               	movlw	1
  3442     05A4  07CF               	addwf	_milisegundos+1,f
  3443     05A5  3000               	movlw	0
  3444     05A6  1803               	skipnc
  3445     05A7  3001               	movlw	1
  3446     05A8  07D0               	addwf	_milisegundos+2,f
  3447     05A9  3000               	movlw	0
  3448     05AA  1803               	skipnc
  3449     05AB  3001               	movlw	1
  3450     05AC  07D1               	addwf	_milisegundos+3,f
  3451     05AD                     i1l80:
  3452     05AD  0871               	movf	??_INT_TMR0+1,w
  3453     05AE  008A               	movwf	10
  3454     05AF  0E70               	swapf	??_INT_TMR0,w
  3455     05B0  0083               	movwf	3
  3456     05B1  0EFE               	swapf	btemp,f
  3457     05B2  0E7E               	swapf	btemp,w
  3458     05B3  0009               	retfie
  3459     05B4                     __end_of_INT_TMR0:
  3460     007E                     btemp	set	126	;btemp
  3461     007E                     wtemp0	set	126
  3462                           
  3463                           	psect	intentry
  3464     0004                     __pintentry:	
  3465                           ;incstack = 0
  3466                           ; Regs used in _INT_TMR0: [wreg]
  3467                           
  3468     0004                     interrupt_function:
  3469     007E                     saved_w	set	btemp
  3470     0004  00FE               	movwf	btemp
  3471     0005  0E03               	swapf	3,w
  3472     0006  00F0               	movwf	??_INT_TMR0
  3473     0007  080A               	movf	10,w
  3474     0008  00F1               	movwf	??_INT_TMR0+1
  3475     0009  120A  118A  2D96   	ljmp	_INT_TMR0
  3476                           
  3477                           	psect	config
  3478                           
  3479                           ;Config register CONFIG @ 0x2007
  3480                           ;	Oscillator Selection bits
  3481                           ;	FOSC = XT, XT oscillator
  3482                           ;	Watchdog Timer Enable bit
  3483                           ;	WDTE = OFF, WDT disabled
  3484                           ;	Power-up Timer Enable bit
  3485                           ;	PWRTE = OFF, PWRT disabled
  3486                           ;	Brown-out Reset Enable bit
  3487                           ;	BOREN = OFF, BOR disabled
  3488                           ;	Low-Voltage (Single-Supply) In-Circuit Serial Programming Enable bit
  3489                           ;	LVP = OFF, RB3 is digital I/O, HV on MCLR must be used for programming
  3490                           ;	Data EEPROM Memory Code Protection bit
  3491                           ;	CPD = OFF, Data EEPROM code protection off
  3492                           ;	Flash Program Memory Write Enable bits
  3493                           ;	WRT = OFF, Write protection off; all program memory may be written to by EECON control
  3494                           ;	In-Circuit Debugger Mode bit
  3495                           ;	DEBUG = 0x1, unprogrammed default
  3496                           ;	Flash Program Memory Code Protection bit
  3497                           ;	CP = OFF, Code protection off
  3498     2007                     	org	8199
  3499     2007  3F39               	dw	16185

Data Sizes:
    Strings     0
    Constant    81
    Data        7
    BSS         28
    Persistent  0
    Stack       0

Auto Spaces:
    Space          Size  Autos    Used
    COMMON           14     12      12
    BANK0            80     30      65
    BANK1            80      0       0
    BANK3            96      0       0
    BANK2            96      0       0

Pointer List with Targets:

    efecto_titilar@mensaje	PTR const enum E1034 size(1) Largest target is 3
		 -> diferentes_mensajes@ms_inicio_proceso(CODE[3]), diferentes_mensajes@ms_para_35w(CODE[3]), diferentes_mensajes@ms_para_50w(CODE[3]), 

    mostrar_mensajes@mensaje	PTR const enum E1034 size(1) Largest target is 3
		 -> diferentes_mensajes@ms_inicio_proceso(CODE[3]), diferentes_mensajes@ms_para_35w(CODE[3]), diferentes_mensajes@ms_para_50w(CODE[3]), diferentes_mensajes@sec1(CODE[3]), 
		 -> diferentes_mensajes@sec2(CODE[3]), diferentes_mensajes@sec3(CODE[3]), diferentes_mensajes@sec4(CODE[3]), diferentes_mensajes@sec5(CODE[3]), 
		 -> efecto_titilar@apagado(CODE[3]), verificar_fin_temporizador@MS_CLEAR(CODE[3]), verificar_fin_temporizador@MS_OFF(CODE[3]), 

    verificar_fin_temporizador$300	PTR const enum E1034 size(1) Largest target is 3
		 -> verificar_fin_temporizador@MS_CLEAR(CODE[3]), verificar_fin_temporizador@MS_OFF(CODE[3]), 


Critical Paths under _main in COMMON

    _main->_botones
    _main->_proceso_on
    _actualizar_temporizador->_millis
    _verificar_fin_temporizador->_millis
    _diferentes_mensajes->_millis
    _efecto_titilar->_millis
    _visualizar_display->_millis

Critical Paths under _INT_TMR0 in COMMON

    None.

Critical Paths under _main in BANK0

    _proceso_on->_actualizar_temporizador
    _actualizar_temporizador->_verificar_fin_temporizador
    _verificar_fin_temporizador->_visualizar_display
    _diferentes_mensajes->_efecto_titilar
    _botones->_visualizar_display

Critical Paths under _INT_TMR0 in BANK0

    None.

Critical Paths under _main in BANK1

    None.

Critical Paths under _INT_TMR0 in BANK1

    None.

Critical Paths under _main in BANK3

    None.

Critical Paths under _INT_TMR0 in BANK3

    None.

Critical Paths under _main in BANK2

    None.

Critical Paths under _INT_TMR0 in BANK2

    None.

Call Graph Tables:

 ---------------------------------------------------------------------------------
 (Depth) Function   	        Calls       Base Space   Used Autos Params    Refs
 ---------------------------------------------------------------------------------
 (0) _main                                                 0     0      0    6747
                            _botones
                _configurar_hardware
                    _configurar_tmr0
                _diferentes_mensajes
                         _proceso_on
                 _visualizar_display
 ---------------------------------------------------------------------------------
 (1) _proceso_on                                           2     2      0    1950
                                             10 COMMON     2     2      0
            _actualizar_temporizador
 ---------------------------------------------------------------------------------
 (2) _actualizar_temporizador                              8     8      0    1950
                                             22 BANK0      8     8      0
         _convertir_tiempo_a_display
                             _millis
         _verificar_fin_temporizador
 ---------------------------------------------------------------------------------
 (3) _verificar_fin_temporizador                          14    14      0    1882
                                              8 BANK0     14    14      0
              _condiciones_iniciales
                             _millis
                   _mostrar_mensajes
                 _visualizar_display
 ---------------------------------------------------------------------------------
 (1) _diferentes_mensajes                                  8     8      0    3461
                                             14 BANK0      8     8      0
                            ___awmod
         _convertir_tiempo_a_display
                     _efecto_titilar
                             _millis
                   _mostrar_mensajes
 ---------------------------------------------------------------------------------
 (2) _efecto_titilar                                      14     9      5    1741
                                              0 BANK0     14     9      5
                             _millis
                   _mostrar_mensajes
 ---------------------------------------------------------------------------------
 (5) _mostrar_mensajes                                     7     6      1    1052
                                              2 COMMON     7     6      1
 ---------------------------------------------------------------------------------
 (1) _configurar_tmr0                                      0     0      0       0
 ---------------------------------------------------------------------------------
 (1) _configurar_hardware                                  0     0      0       0
 ---------------------------------------------------------------------------------
 (1) _botones                                              2     2      0     668
                                             10 COMMON     2     2      0
            _decremento_temporizador
            _incremento_temporizador
                 _visualizar_display
 ---------------------------------------------------------------------------------
 (1) _visualizar_display                                   8     8      0     668
                                              0 BANK0      8     8      0
                            ___awmod
                             _millis
 ---------------------------------------------------------------------------------
 (2) _millis                                               8     4      4      23
                                              2 COMMON     8     4      4
 ---------------------------------------------------------------------------------
 (2) ___awmod                                              6     2      4     600
                                              2 COMMON     6     2      4
 ---------------------------------------------------------------------------------
 (2) _incremento_temporizador                              0     0      0       0
         _convertir_tiempo_a_display
 ---------------------------------------------------------------------------------
 (2) _decremento_temporizador                              0     0      0       0
              _condiciones_iniciales
         _convertir_tiempo_a_display
 ---------------------------------------------------------------------------------
 (3) _convertir_tiempo_a_display                           0     0      0       0
 ---------------------------------------------------------------------------------
 (4) _condiciones_iniciales                                0     0      0       0
 ---------------------------------------------------------------------------------
 Estimated maximum stack depth 5
 ---------------------------------------------------------------------------------
 (Depth) Function   	        Calls       Base Space   Used Autos Params    Refs
 ---------------------------------------------------------------------------------
 (6) _INT_TMR0                                             2     2      0       0
                                              0 COMMON     2     2      0
 ---------------------------------------------------------------------------------
 Estimated maximum stack depth 6
 ---------------------------------------------------------------------------------

 Call Graph Graphs:

 _main (ROOT)
   _botones
     _decremento_temporizador
       _condiciones_iniciales
       _convertir_tiempo_a_display
     _incremento_temporizador
       _convertir_tiempo_a_display
     _visualizar_display
       ___awmod
       _millis
   _configurar_hardware
   _configurar_tmr0
   _diferentes_mensajes
     ___awmod
     _convertir_tiempo_a_display
     _efecto_titilar
       _millis
       _mostrar_mensajes
     _millis
     _mostrar_mensajes
   _proceso_on
     _actualizar_temporizador
       _convertir_tiempo_a_display
       _millis
       _verificar_fin_temporizador
         _condiciones_iniciales
         _millis
         _mostrar_mensajes
         _visualizar_display
   _visualizar_display

 _INT_TMR0 (ROOT)

 Address spaces:
Name               Size   Autos  Total    Cost      Usage
BANK3               60      0       0       9        0.0%
BITBANK3            60      0       0       8        0.0%
SFR3                 0      0       0       4        0.0%
BITSFR3              0      0       0       4        0.0%
BANK2               60      0       0      11        0.0%
BITBANK2            60      0       0      10        0.0%
SFR2                 0      0       0       5        0.0%
BITSFR2              0      0       0       5        0.0%
BANK1               50      0       0       7        0.0%
BITBANK1            50      0       0       6        0.0%
SFR1                 0      0       0       2        0.0%
BITSFR1              0      0       0       2        0.0%
BANK0               50     1E      41       5       81.2%
BITBANK0            50      0       0       4        0.0%
SFR0                 0      0       0       1        0.0%
BITSFR0              0      0       0       1        0.0%
COMMON               E      C       C       1       85.7%
BITCOMMON            E      0       0       0        0.0%
CODE                 0      0       0       0        0.0%
DATA                 0      0      4D      12        0.0%
ABS                  0      0      4D       3        0.0%
NULL                 0      0       0       0        0.0%
STACK                0      0       0       2        0.0%
EEDATA             100      0       0       0        0.0%


Microchip Technology PIC Macro Assembler V2.46 build 20240104201356 
Symbol Table                                                                                   Tue May 13 23:10:52 2025

                     mostrar_mensajes@mensaje 0077                                             pc 0002  
                    __end_of_mostrar_mensajes 04FC                         ??_configurar_hardware 0072  
                                          l71 05EC                                            l74 060B  
                                          l83 05C8                                            l89 033F  
                                          l98 04FB                       _decremento_temporizador 0525  
                                          fsr 0004                      mostrar_mensajes@longitud 0072  
                                         l141 016E                                           l206 0614  
                                         l232 0524                                           l241 054D  
                                         l153 041F                                           l226 02C9  
                                         l244 05FC                                           l236 0548  
                                         l156 01B3                                           l181 0228  
                                         l165 01F4                                           l190 0573  
                                         l504 0478                                           l184 0571  
                                         l186 0556                                           l196 03B4  
                                         l188 055E                                           u900 046F  
                                         u820 0425                                           u901 046E  
                                         u821 0424                                           u830 0430  
                                         u831 042F                                           u911 02E8  
                                         u840 043B                                           u920 0306  
                                         u912 02E9                                           u841 043A  
                                         u921 0305                                           u913 02EE  
                                         u914 02EF                                           u923 0302  
                                         u915 02F4                                           u860 044D  
                                         u916 02F5                                           u940 04D8  
                                         u861 044C                                           u941 04D7  
                                         u870 0457                                           u934 0325  
                                         u950 04FB                                           u871 0456  
                                         u855 043F                                           u935 0323  
                                         u951 04FA                                           u961 0259  
                                         u890 046A                                           u970 0278  
                                         u962 025A                                           u891 0469  
                                         u875 0453                                           u971 0277  
                                         u963 025F                                           u980 0288  
                                         u964 0260                                           u885 045E  
                                         u981 0286                                           u973 0274  
                                         u965 0265                                           u990 0289  
                                         u966 0266                                           fsr0 0004  
                                         indf 0000                                  ___awmod@sign 0077  
                     diferentes_mensajes@sec1 04CD                       diferentes_mensajes@sec2 04CA  
                     diferentes_mensajes@sec3 04C7                       diferentes_mensajes@sec4 04C4  
                     diferentes_mensajes@sec5 04C1                                          l1010 05DC  
                                        l1020 05EA                                          l1012 05E1  
                                        l1022 05EB                                          l1014 05E2  
                                        l1030 0605                                          l1016 05E4  
                                        l1032 0606                                          l1024 05FD  
                                        l1018 05E8                                          l1034 0607  
                                        l1026 0603                                          l1300 0312  
                                        l1028 0604                                          l1302 031F  
                                        l1400 050D                                          l1304 032B  
                                        l1320 04F1                                          l1312 04D2  
                                        l1330 05F5                                          l1402 0513  
                                        l1410 051F                                          l1250 05B5  
                                        l1322 04F5                                          l1314 04D8  
                                        l1306 04D1                                          l1332 05F8  
                                        l1324 05ED                                          l1420 0536  
                                        l1412 0525                                          l1404 0514  
                                        l1260 0425                                          l1252 05BF  
                                        l1316 04DD                                          l1500 00F3  
                                        l1340 022C                                          l1334 05FA  
                                        l1326 05F3                                          l1422 0539  
                                        l1414 052C                                          l1406 0518  
                                        l1270 043B                                          l1262 042A  
                                        l1318 04EB                                          l1502 00F6  
                                        l1350 0278                                          l1342 0234  
                                        l1430 0340                                          l1328 05F4  
                                        l1336 060C                                          l1424 053E  
                                        l1416 052F                                          l1408 051E  
                                        l1280 0457                                          l1272 043E  
                                        l1264 042C                                          l1256 0420  
                                        l1248 05B4                                          l1600 0222  
                                        l1520 0132                                          l1504 0106  
                                        l1512 0113                                          l1360 0294  
                                        l1352 0282                                          l1344 0236  
                                        l1440 038D                                          l1432 034F  
                                        l1426 0540                                          l1418 0534  
                                        l1290 0474                                          l1282 045D  
                                        l1274 0445                                          l1266 0430  
                                        l1258 0421                                          l1530 015C  
                                        l1522 013A                                          l1506 010E  
                                        l1514 0123                                          l1370 02B9  
                                        l1354 028A                                          l1362 029C  
                                        l1346 023B                                          l1338 0229  
                                        l1450 039F                                          l1442 0392  
                                        l1602 054E                                          l1428 0543  
                                        l1284 0464                                          l1276 0449  
                                        l1268 0435                                          l1540 016F  
                                        l1380 03F5                                          l1532 0164  
                                        l1524 013F                                          l1516 0128  
                                        l1508 0110                                          l1372 02BE  
                                        l1364 02A2                                          l1356 028F  
                                        l1348 024A                                          l1452 03A4  
                                        l1460 03AF                                          l1444 0395  
                                        l1436 0355                                          l1612 0561  
                                        l1278 044D                                          l1286 046A  
                                        l1294 02CA                                          l1550 018E  
                                        l1542 0175                                          l1390 0417  
                                        l1382 03FD                                          l1534 0166  
                                        l1526 0144                                          l1518 012D  
                                        l1470 0047                                          l1462 0029  
                                        l1366 02AD                                          l1358 0292  
                                        l1374 02C4                                          l1454 03A6  
                                        l1446 039A                                          l1438 0383  
                                        l1606 0558                                          l1630 0588  
                                        l1392 04FC                                          l1288 046F  
                                        l1296 02D9                                          l1560 01A8  
                                        l1552 0194                                          l1544 017A  
                                        l1384 0405                                          l1376 03B8  
                                        l1528 014C                                          l1480 00A5  
                                        l1472 0074                                          l1464 0038  
                                        l1368 02B3                                          l1456 03A9  
                                        l1448 039C                                          l1632 058D  
                                        l1624 0574                                          l1394 0502  
                                        l1298 0306                                          l1570 01CB  
                                        l1562 01AE                                          l1554 0198  
                                        l1546 0183                                          l1386 0409  
                                        l1378 03C7                                          l1482 00AE  
                                        l1474 007E                                          l1466 003D  
                                        l1490 00D1                                          l1458 03AA  
                                        l1626 057E                                          l1396 0508  
                                        l1580 01E4                                          l1572 01D0  
                                        l1564 01B7                                          l1556 019D  
                                        l1548 0189                                          l1388 040E  
                                        l1484 00B7                                          l1476 0093  
                                        l1468 0042                                          l1628 0583  
                                        l1398 0509                                          l1590 0206  
                                        l1582 01E9                                          l1574 01D5  
                                        l1566 01BC                                          l1558 01A3  
                                        l1494 00D9                                          l1478 009C  
                                        l1592 020C                                          l1584 01EF  
                                        l1576 01D9                                          l1568 01C5  
                                        l1496 00E9                                          l1488 00C0  
                                        l1594 0211                                          l1586 01F8  
                                        l1578 01DE                                          l1498 00F1  
                                        l1674 0569                                          l1596 0214  
                                        l1588 01FD                                          l1676 011B  
                                        l1598 021D                  ??_verificar_fin_temporizador 0028  
                                        u1000 028F                                          u1001 028E  
                                        u1010 02A2                                          u1011 02A1  
                                        u1100 0508                                          u1020 02B3  
                                        u1101 0507                                          u1021 02B2  
                                        u1110 0513                                          u1030 02C4  
                                        u1111 0512                                          u1031 02C3  
                                        u1120 051E                                          u1040 02C9  
                                        u1200 039A                                          u1121 051D  
                                        u1041 02C8                                          u1201 0399  
                                        u1130 052C                                          u1210 03A4  
                                        u1131 052B                                          u1051 03D6  
                                        u1211 03A3                                          u1140 0534  
                                        u1060 03F5                                          u1052 03D7  
                                        u1300 0128                                          u1220 003D  
                                        u1141 0533                                          u1061 03F4  
                                        u1053 03DC                                          u1301 0127  
                                        u1221 003C                                          u1150 053E  
                                        u1070 0403                                          u1054 03DD  
                                        u1310 012D                                          u1230 0042  
                                        u1151 053D                                          u1071 0401  
                                        u1055 03E2                                          u1311 012C  
                                        u1231 0041                                          u1400 0189  
                                        u1080 0404                                          u1056 03E3  
                                        u1320 013A                                          u1240 0047  
                                        u1160 0354                                          u1401 0188  
                                        u1065 03F1                                          u1321 0139  
                                        u1241 0046                                          u1161 0353  
                                        u1410 018E                                          u1090 040E  
                                        u1330 013F                                          u1411 018D  
                                        u1091 040D                                          u1331 013E  
                                        u1251 0056                                          u1171 0364  
                                        u1500 01D5                                          u1420 0194  
                                        u1340 014C                                          u1260 0074  
                                        u1252 0057                                          u1180 0383  
                                        u1172 0365                                          u1501 01D4  
                                        u1421 0193                                          u1341 014B  
                                        u1261 0073                                          u1253 005C  
                                        u1181 0382                                          u1173 036A  
                                        u1510 01DE                                          u1430 019D  
                                        u1350 0164                                          u1270 00D8  
                                        u1254 005D                                          u1190 0392  
                                        u1174 036B                                          u1511 01DD  
                                        u1431 019C                                          u1351 0163  
                                        u1271 00D7                                          u1263 0070  
                                        u1255 0062                                          u1191 0391  
                                        u1183 037F                                          u1175 0370  
                                        u1600 0228                                          u1520 01EF  
                                        u1440 01AE                                          u1360 016C  
                                        u1280 00F1                                          u1256 0063  
                                        u1176 0371                                          u1601 0227  
                                        u1521 01EE                                          u1441 01AD  
                                        u1361 016A                                          u1281 00F0  
                                        u1530 01F4                                          u1450 01B3  
                                        u1370 016D                                          u1290 010E  
                                        u1610 0555                                          u1531 01F3  
                                        u1451 01B2                                          u1291 010D  
                                        u1611 0554                                          u1540 01F8  
                                        u1460 01B7                                          u1380 0175  
                                        u1541 01F7                                          u1461 01B6  
                                        u1381 0174                                          u1550 01FD  
                                        u1470 01BC                                          u1390 017A  
                                        u1551 01FC                                          u1471 01BB  
                                        u1391 0179                                          u1560 020C  
                                        u1480 01CB                                          u1561 020B  
                                        u1481 01CA                                          u1570 0211  
                                        u1490 01D0                                          u1571 0210  
                                        u1491 01CF                                          u1580 021A  
                                        u1581 0218                                          u1637 02A8  
                                        u1590 021B                                          u1647 017E  
                                        u1657 01C0                                          u1667 0201  
                                        i1l80 05AD                                          _TMR0 0001  
                                        _cont 0057                                          _main 0574  
                                        btemp 007E                                          start 000C  
                            ?_configurar_tmr0 0070                     ??_actualizar_temporizador 0036  
                 ?_convertir_tiempo_a_display 0070                                         ?_main 0070  
                             __end_of___awmod 0479                                         _DATOS 047F  
                            __end_of_INT_TMR0 05B4                             efecto_titilar@now 0029  
                                       _PORTA 0005                                         _PORTB 0006  
                                       _PORTC 0007                                         _PORTD 0008  
                                       _TRISA 0085                                         _TRISB 0086  
                                       _TRISC 0087                                         _TRISD 0088  
               __end_ofefecto_titilar@apagado 04B8                               __end_of_botones 0229  
                                       pclath 000A                                         status 0003  
                                       wtemp0 007E                               __initialization 000F  
                   ??_decremento_temporizador 0072                                  __end_of_main 0596  
                                      ??_main 007C               __end_of_actualizar_temporizador 03B5  
                                      i1l1620 059A                                        i1l1622 059B  
                                      i1l1618 0596                                        u162_20 059A  
                                      u162_21 0599                                     ??___awmod 0076  
                    ?_incremento_temporizador 0070                                        _millis 05B4  
                                      _on_off 0058                               ___awmod@divisor 0072  
                             ___awmod@counter 0076                                     ??_botones 007A  
                       _condiciones_iniciales 05ED                                        saved_w 007E  
             __end_of_decremento_temporizador 054E            __end_of_verificar_fin_temporizador 02CA  
                  _verificar_fin_temporizador 0229                         visualizar_display@now 0024  
             __end_ofdiferentes_mensajes@sec1 04D0               __end_ofdiferentes_mensajes@sec2 04CD  
             __end_ofdiferentes_mensajes@sec3 04CA               __end_ofdiferentes_mensajes@sec4 04C7  
             __end_ofdiferentes_mensajes@sec5 04C4                       __end_of__initialization 0025  
                               __end_of_DATOS 04AF                                     ?_INT_TMR0 0070  
                              __pcstackCOMMON 0070                                  __pidataBANK0 061D  
                           ?_mostrar_mensajes 0072                            ??_mostrar_mensajes 0073  
                              _OPTION_REGbits 0081                                _efecto_titilar 03B5  
                 __end_of_diferentes_mensajes 016F                                    __pbssBANK0 003E  
                  actualizar_temporizador@now 003A                   __end_of_configurar_hardware 05ED  
                                  ??_INT_TMR0 0070                                    __pmaintext 0574  
                                  __pintentry 0004                                       ?_millis 0072  
                      ?_condiciones_iniciales 0070         verificar_fin_temporizador@last_change 002C  
                      __end_of_efecto_titilar 0420                                    __stringtab 0479  
                        _mostrar_mensajes$248 0075                                       ___awmod 0420  
                                     _decenas 005F                                       __ptext1 054E  
                                     __ptext2 0340                                       __ptext3 0229  
                                     __ptext4 0029                                       __ptext5 03B5  
                                     __ptext6 04D0                                       __ptext7 05FD  
                                     __ptext8 05DC                                       __ptext9 016F  
                           mostrar_mensajes@i 0078                                       _botones 016F  
                             ?_efecto_titilar 0020                 verificar_fin_temporizador@now 0031  
                            ___awmod@dividend 0074                         efecto_titilar@apagado 04B5  
  __end_ofverificar_fin_temporizador@MS_CLEAR 04B2            verificar_fin_temporizador@MS_CLEAR 04AF  
                                     clrloop0 0616                          end_of_initialization 0025  
                    ?_actualizar_temporizador 0070                         efecto_titilar@mensaje 002D  
                                     millis@m 0076                         efecto_titilar@mostrar 005D  
                                   _PORTBbits 0006                                     _PORTCbits 0007  
                                  _proceso_on 054E                   ?_verificar_fin_temporizador 0070  
                  visualizar_display@last_mux 004A                        diferentes_mensajes@now 0032  
                    ?_decremento_temporizador 0070                                __end_of_millis 05C9  
              _verificar_fin_temporizador$300 0030                           start_initialization 000F  
                           ??_configurar_tmr0 0072                    __end_of_visualizar_display 0340  
                                  init_fetch0 05C9                       ??_condiciones_iniciales 0072  
                                 __pdataBANK0 005A                                      ??_millis 0076  
                ??_convertir_tiempo_a_display 0072                                   ?_proceso_on 0070  
__end_ofdiferentes_mensajes@ms_inicio_proceso 04BB          diferentes_mensajes@ms_inicio_proceso 04B8  
                                   ___latbits 0002                                 __pcstackBANK0 0020  
                                    ?___awmod 0072                              ??_efecto_titilar 0025  
                                   __pstrings 0479                                      ?_botones 0070  
                     _incremento_temporizador 04FC                             interrupt_function 0004  
                                _milisegundos 004E                                     clear_ram0 0615  
                                   _ms_tiempo 0055                          efecto_titilar@tiempo 0021  
                                    _INT_TMR0 0596                 diferentes_mensajes@mostrar_ms 0052  
                                 __stringbase 047E                                  _modo_proceso 0054  
                            _mostrar_mensajes 04D0                           _temporizador_activo 0060  
                   efecto_titilar@last_change 0042                               _configurar_tmr0 05FD  
          __end_of_convertir_tiempo_a_display 0615                    _convertir_tiempo_a_display 060C  
                          __end_of__stringtab 047F                     ??_incremento_temporizador 0072  
                                    _centenas 005E                                      __ptext10 02CA  
                                    __ptext11 05B4                                      __ptext12 0420  
                                    __ptext13 04FC                                      __ptext14 0525  
                                    __ptext15 060C                                      __ptext16 05ED  
                                    __ptext17 0596      verificar_fin_temporizador@mostrar_dos_ms 0035  
                                    _ms_state 0053            actualizar_temporizador@last_second 003E  
                                    _unidades 0056                            _visualizar_display 02CA  
               __end_of_condiciones_iniciales 05FD                                  ??_proceso_on 007A  
                         _diferentes_mensajes 0029                                    _INTCONbits 000B  
                         ?_visualizar_display 0070                diferentes_mensajes@last_change 0046  
                                    init_ram0 05CD                        efecto_titilar@longitud 0020  
                                    intlevel1 0000                           _configurar_hardware 05DC  
    __end_ofverificar_fin_temporizador@MS_OFF 04B5              verificar_fin_temporizador@MS_OFF 04B2  
             __end_of_incremento_temporizador 0525                          ?_diferentes_mensajes 0070  
                     __end_of_configurar_tmr0 060C                                     stringcode 0479  
                        ??_visualizar_display 0020                            __end_of_proceso_on 0574  
                     _actualizar_temporizador 0340                          ?_configurar_hardware 0070  
                              _display_buffer 005A                                      stringdir 0479  
                                    stringtab 0479        __end_ofdiferentes_mensajes@ms_para_50w 04BE  
              diferentes_mensajes@ms_para_50w 04BB        __end_ofdiferentes_mensajes@ms_para_35w 04C1  
              diferentes_mensajes@ms_para_35w 04BE                                 _display_state 0059  
                       ??_diferentes_mensajes 002E  
